; Listing generated by Microsoft (R) Optimizing Compiler Version 15.00.30729.01 

	TITLE	e:\newGGDevelop\Client\GGJsonCPP\json_reader.cpp
	.686P
	.XMM
	include listing.inc
	.model	flat


PUBLIC	??_R4runtime_error@std@@6B@			; std::runtime_error::`RTTI Complete Object Locator'
PUBLIC	??_R3runtime_error@std@@8			; std::runtime_error::`RTTI Class Hierarchy Descriptor'
PUBLIC	??_R2runtime_error@std@@8			; std::runtime_error::`RTTI Base Class Array'
PUBLIC	??_R1A@?0A@EA@runtime_error@std@@8		; std::runtime_error::`RTTI Base Class Descriptor at (0,-1,0,64)'
PUBLIC	??_R4length_error@std@@6B@			; std::length_error::`RTTI Complete Object Locator'
PUBLIC	??_R3length_error@std@@8			; std::length_error::`RTTI Class Hierarchy Descriptor'
PUBLIC	??_R2length_error@std@@8			; std::length_error::`RTTI Base Class Array'
PUBLIC	??_R1A@?0A@EA@length_error@std@@8		; std::length_error::`RTTI Base Class Descriptor at (0,-1,0,64)'
PUBLIC	??_R4logic_error@std@@6B@			; std::logic_error::`RTTI Complete Object Locator'
PUBLIC	??_R3logic_error@std@@8				; std::logic_error::`RTTI Class Hierarchy Descriptor'
PUBLIC	??_R2logic_error@std@@8				; std::logic_error::`RTTI Base Class Array'
PUBLIC	??_R1A@?0A@EA@logic_error@std@@8		; std::logic_error::`RTTI Base Class Descriptor at (0,-1,0,64)'
PUBLIC	??_R4bad_alloc@std@@6B@				; std::bad_alloc::`RTTI Complete Object Locator'
PUBLIC	??_R3bad_alloc@std@@8				; std::bad_alloc::`RTTI Class Hierarchy Descriptor'
PUBLIC	??_R2bad_alloc@std@@8				; std::bad_alloc::`RTTI Base Class Array'
PUBLIC	??_R1A@?0A@EA@exception@std@@8			; std::exception::`RTTI Base Class Descriptor at (0,-1,0,64)'
PUBLIC	??_R3exception@std@@8				; std::exception::`RTTI Class Hierarchy Descriptor'
PUBLIC	??_R2exception@std@@8				; std::exception::`RTTI Base Class Array'
PUBLIC	??_R1A@?0A@EA@bad_alloc@std@@8			; std::bad_alloc::`RTTI Base Class Descriptor at (0,-1,0,64)'
PUBLIC	??_C@_0P@GHFPNOJB@bad?5allocation?$AA@		; `string'
PUBLIC	??$?0VPathArgument@Json@@@?$allocator@V_Aux_cont@std@@@std@@QAE@ABV?$allocator@VPathArgument@Json@@@1@@Z ; std::allocator<std::_Aux_cont>::allocator<std::_Aux_cont><Json::PathArgument>
PUBLIC	??0?$_Container_base_aux_alloc_real@V?$allocator@VPathArgument@Json@@@std@@@std@@IAE@V?$allocator@VPathArgument@Json@@@1@@Z ; std::_Container_base_aux_alloc_real<std::allocator<Json::PathArgument> >::_Container_base_aux_alloc_real<std::allocator<Json::PathArgument> >
PUBLIC	??0?$allocator@VPathArgument@Json@@@std@@QAE@ABV01@@Z ; std::allocator<Json::PathArgument>::allocator<Json::PathArgument>
PUBLIC	??0?$_Vector_val@VPathArgument@Json@@V?$allocator@VPathArgument@Json@@@std@@@std@@IAE@V?$allocator@VPathArgument@Json@@@1@@Z ; std::_Vector_val<Json::PathArgument,std::allocator<Json::PathArgument> >::_Vector_val<Json::PathArgument,std::allocator<Json::PathArgument> >
PUBLIC	?begin@?$vector@VPathArgument@Json@@V?$allocator@VPathArgument@Json@@@std@@@std@@QBE?AV?$_Vector_const_iterator@VPathArgument@Json@@V?$allocator@VPathArgument@Json@@@std@@@2@XZ ; std::vector<Json::PathArgument,std::allocator<Json::PathArgument> >::begin
PUBLIC	?end@?$vector@VPathArgument@Json@@V?$allocator@VPathArgument@Json@@@std@@@std@@QBE?AV?$_Vector_const_iterator@VPathArgument@Json@@V?$allocator@VPathArgument@Json@@@std@@@2@XZ ; std::vector<Json::PathArgument,std::allocator<Json::PathArgument> >::end
PUBLIC	?_Checked_iterator_base@?$_Vector_const_iterator@VPathArgument@Json@@V?$allocator@VPathArgument@Json@@@std@@@std@@QBEPBVPathArgument@Json@@XZ ; std::_Vector_const_iterator<Json::PathArgument,std::allocator<Json::PathArgument> >::_Checked_iterator_base
PUBLIC	??$_Checked_base@V?$_Vector_const_iterator@VPathArgument@Json@@V?$allocator@VPathArgument@Json@@@std@@@std@@U_Different_checked_iterator_base_type_tag@2@@std@@YAPBVPathArgument@Json@@AAV?$_Vector_const_iterator@VPathArgument@Json@@V?$allocator@VPathArgument@Json@@@std@@@0@U_Different_checked_iterator_base_type_tag@0@@Z ; std::_Checked_base<std::_Vector_const_iterator<Json::PathArgument,std::allocator<Json::PathArgument> >,std::_Different_checked_iterator_base_type_tag>
PUBLIC	??$_Checked_base@V?$_Vector_const_iterator@VPathArgument@Json@@V?$allocator@VPathArgument@Json@@@std@@@std@@@std@@YAPBVPathArgument@Json@@AAV?$_Vector_const_iterator@VPathArgument@Json@@V?$allocator@VPathArgument@Json@@@std@@@0@@Z ; std::_Checked_base<std::_Vector_const_iterator<Json::PathArgument,std::allocator<Json::PathArgument> > >
PUBLIC	??$_Ptr_cat@V?$_Vector_const_iterator@VPathArgument@Json@@V?$allocator@VPathArgument@Json@@@std@@@std@@PAVPathArgument@Json@@@std@@YA?AU_Nonscalar_ptr_iterator_tag@0@AAV?$_Vector_const_iterator@VPathArgument@Json@@V?$allocator@VPathArgument@Json@@@std@@@0@AAPAVPathArgument@Json@@@Z ; std::_Ptr_cat<std::_Vector_const_iterator<Json::PathArgument,std::allocator<Json::PathArgument> >,Json::PathArgument *>
PUBLIC	??$_Uninit_copy@PBVPathArgument@Json@@PAV12@V?$allocator@VPathArgument@Json@@@std@@@std@@YAPAVPathArgument@Json@@PBV12@0PAV12@AAV?$allocator@VPathArgument@Json@@@0@U_Nonscalar_ptr_iterator_tag@0@U_Range_checked_iterator_tag@0@@Z ; std::_Uninit_copy<Json::PathArgument const *,Json::PathArgument *,std::allocator<Json::PathArgument> >
PUBLIC	??$unchecked_uninitialized_copy@V?$_Vector_const_iterator@VPathArgument@Json@@V?$allocator@VPathArgument@Json@@@std@@@std@@PAVPathArgument@Json@@V?$allocator@VPathArgument@Json@@@2@@stdext@@YAPAVPathArgument@Json@@V?$_Vector_const_iterator@VPathArgument@Json@@V?$allocator@VPathArgument@Json@@@std@@@std@@0PAV12@AAV?$allocator@VPathArgument@Json@@@4@@Z ; stdext::unchecked_uninitialized_copy<std::_Vector_const_iterator<Json::PathArgument,std::allocator<Json::PathArgument> >,Json::PathArgument *,std::allocator<Json::PathArgument> >
PUBLIC	??$_Ucopy@V?$_Vector_const_iterator@VPathArgument@Json@@V?$allocator@VPathArgument@Json@@@std@@@std@@@?$vector@VPathArgument@Json@@V?$allocator@VPathArgument@Json@@@std@@@std@@IAEPAVPathArgument@Json@@V?$_Vector_const_iterator@VPathArgument@Json@@V?$allocator@VPathArgument@Json@@@std@@@1@0PAV23@@Z ; std::vector<Json::PathArgument,std::allocator<Json::PathArgument> >::_Ucopy<std::_Vector_const_iterator<Json::PathArgument,std::allocator<Json::PathArgument> > >
PUBLIC	??0?$vector@VPathArgument@Json@@V?$allocator@VPathArgument@Json@@@std@@@std@@QAE@ABV01@@Z ; std::vector<Json::PathArgument,std::allocator<Json::PathArgument> >::vector<Json::PathArgument,std::allocator<Json::PathArgument> >
PUBLIC	??1?$_Container_base_aux_alloc_real@V?$allocator@VPathArgument@Json@@@std@@@std@@IAE@XZ ; std::_Container_base_aux_alloc_real<std::allocator<Json::PathArgument> >::~_Container_base_aux_alloc_real<std::allocator<Json::PathArgument> >
PUBLIC	??1?$_Vector_val@VPathArgument@Json@@V?$allocator@VPathArgument@Json@@@std@@@std@@QAE@XZ ; std::_Vector_val<Json::PathArgument,std::allocator<Json::PathArgument> >::~_Vector_val<Json::PathArgument,std::allocator<Json::PathArgument> >
PUBLIC	?_Tidy@?$vector@VPathArgument@Json@@V?$allocator@VPathArgument@Json@@@std@@@std@@IAEXXZ ; std::vector<Json::PathArgument,std::allocator<Json::PathArgument> >::_Tidy
PUBLIC	??1?$vector@VPathArgument@Json@@V?$allocator@VPathArgument@Json@@@std@@@std@@QAE@XZ ; std::vector<Json::PathArgument,std::allocator<Json::PathArgument> >::~vector<Json::PathArgument,std::allocator<Json::PathArgument> >
PUBLIC	?deallocate@?$allocator@VPathArgument@Json@@@std@@QAEXPAVPathArgument@Json@@I@Z ; std::allocator<Json::PathArgument>::deallocate
PUBLIC	?capacity@?$vector@VPathArgument@Json@@V?$allocator@VPathArgument@Json@@@std@@@std@@QBEIXZ ; std::vector<Json::PathArgument,std::allocator<Json::PathArgument> >::capacity
PUBLIC	?size@?$vector@VPathArgument@Json@@V?$allocator@VPathArgument@Json@@@std@@@std@@QBEIXZ ; std::vector<Json::PathArgument,std::allocator<Json::PathArgument> >::size
PUBLIC	?begin@?$vector@VPathArgument@Json@@V?$allocator@VPathArgument@Json@@@std@@@std@@QAE?AV?$_Vector_iterator@VPathArgument@Json@@V?$allocator@VPathArgument@Json@@@std@@@2@XZ ; std::vector<Json::PathArgument,std::allocator<Json::PathArgument> >::begin
PUBLIC	?end@?$vector@VPathArgument@Json@@V?$allocator@VPathArgument@Json@@@std@@@std@@QAE?AV?$_Vector_iterator@VPathArgument@Json@@V?$allocator@VPathArgument@Json@@@std@@@2@XZ ; std::vector<Json::PathArgument,std::allocator<Json::PathArgument> >::end
PUBLIC	??0?$_Iterator_with_base@Urandom_access_iterator_tag@std@@VPathArgument@Json@@HPBV34@ABV34@V_Iterator_base_aux@2@@std@@QAE@XZ ; std::_Iterator_with_base<std::random_access_iterator_tag,Json::PathArgument,int,Json::PathArgument const *,Json::PathArgument const &,std::_Iterator_base_aux>::_Iterator_with_base<std::random_access_iterator_tag,Json::PathArgument,int,Json::PathArgument const *,Json::PathArgument const &,std::_Iterator_base_aux>
PUBLIC	??0?$_Ranit@VPathArgument@Json@@HPBV12@ABV12@@std@@QAE@XZ ; std::_Ranit<Json::PathArgument,int,Json::PathArgument const *,Json::PathArgument const &>::_Ranit<Json::PathArgument,int,Json::PathArgument const *,Json::PathArgument const &>
PUBLIC	??0?$_Vector_const_iterator@VPathArgument@Json@@V?$allocator@VPathArgument@Json@@@std@@@std@@QAE@PAVPathArgument@Json@@PBV_Container_base_aux@1@@Z ; std::_Vector_const_iterator<Json::PathArgument,std::allocator<Json::PathArgument> >::_Vector_const_iterator<Json::PathArgument,std::allocator<Json::PathArgument> >
PUBLIC	??0?$_Vector_iterator@VPathArgument@Json@@V?$allocator@VPathArgument@Json@@@std@@@std@@QAE@PAVPathArgument@Json@@PBV_Container_base_aux@1@@Z ; std::_Vector_iterator<Json::PathArgument,std::allocator<Json::PathArgument> >::_Vector_iterator<Json::PathArgument,std::allocator<Json::PathArgument> >
PUBLIC	?_Make_iter@?$vector@VPathArgument@Json@@V?$allocator@VPathArgument@Json@@@std@@@std@@QBE?AV?$_Vector_iterator@VPathArgument@Json@@V?$allocator@VPathArgument@Json@@@std@@@2@V?$_Vector_const_iterator@VPathArgument@Json@@V?$allocator@VPathArgument@Json@@@std@@@2@@Z ; std::vector<Json::PathArgument,std::allocator<Json::PathArgument> >::_Make_iter
PUBLIC	??8?$_Vector_const_iterator@VPathArgument@Json@@V?$allocator@VPathArgument@Json@@@std@@@std@@QBE_NABV01@@Z ; std::_Vector_const_iterator<Json::PathArgument,std::allocator<Json::PathArgument> >::operator==
PUBLIC	??9?$_Vector_const_iterator@VPathArgument@Json@@V?$allocator@VPathArgument@Json@@@std@@@std@@QBE_NABV01@@Z ; std::_Vector_const_iterator<Json::PathArgument,std::allocator<Json::PathArgument> >::operator!=
PUBLIC	?erase@?$vector@VPathArgument@Json@@V?$allocator@VPathArgument@Json@@@std@@@std@@QAE?AV?$_Vector_iterator@VPathArgument@Json@@V?$allocator@VPathArgument@Json@@@std@@@2@V?$_Vector_const_iterator@VPathArgument@Json@@V?$allocator@VPathArgument@Json@@@std@@@2@0@Z ; std::vector<Json::PathArgument,std::allocator<Json::PathArgument> >::erase
PUBLIC	?clear@?$vector@VPathArgument@Json@@V?$allocator@VPathArgument@Json@@@std@@@std@@QAEXXZ ; std::vector<Json::PathArgument,std::allocator<Json::PathArgument> >::clear
PUBLIC	??$_Allocate@VPathArgument@Json@@@std@@YAPAVPathArgument@Json@@IPAV12@@Z ; std::_Allocate<Json::PathArgument>
PUBLIC	?allocate@?$allocator@VPathArgument@Json@@@std@@QAEPAVPathArgument@Json@@I@Z ; std::allocator<Json::PathArgument>::allocate
PUBLIC	?max_size@?$allocator@VPathArgument@Json@@@std@@QBEIXZ ; std::allocator<Json::PathArgument>::max_size
PUBLIC	?max_size@?$vector@VPathArgument@Json@@V?$allocator@VPathArgument@Json@@@std@@@std@@QBEIXZ ; std::vector<Json::PathArgument,std::allocator<Json::PathArgument> >::max_size
PUBLIC	?_Xlen@?$vector@VPathArgument@Json@@V?$allocator@VPathArgument@Json@@@std@@@std@@KAXXZ ; std::vector<Json::PathArgument,std::allocator<Json::PathArgument> >::_Xlen
PUBLIC	?_Buy@?$vector@VPathArgument@Json@@V?$allocator@VPathArgument@Json@@@std@@@std@@IAE_NI@Z ; std::vector<Json::PathArgument,std::allocator<Json::PathArgument> >::_Buy
PUBLIC	??$_Destroy_range@V?$allocator@VPathArgument@Json@@@std@@@std@@YAXPAVPathArgument@Json@@0AAV?$allocator@VPathArgument@Json@@@0@U_Nonscalar_ptr_iterator_tag@0@@Z ; std::_Destroy_range<std::allocator<Json::PathArgument> >
PUBLIC	??$_Destroy_range@V?$allocator@VPathArgument@Json@@@std@@@std@@YAXPAVPathArgument@Json@@0AAV?$allocator@VPathArgument@Json@@@0@@Z ; std::_Destroy_range<std::allocator<Json::PathArgument> >
PUBLIC	?_Destroy@?$vector@VPathArgument@Json@@V?$allocator@VPathArgument@Json@@@std@@@std@@IAEXPAVPathArgument@Json@@0@Z ; std::vector<Json::PathArgument,std::allocator<Json::PathArgument> >::_Destroy
PUBLIC	??$_Iter_random@PAVPathArgument@Json@@PAV12@@std@@YA?AUrandom_access_iterator_tag@0@ABQAVPathArgument@Json@@0@Z ; std::_Iter_random<Json::PathArgument *,Json::PathArgument *>
PUBLIC	??$_Copy_opt@PAVPathArgument@Json@@PAV12@Uforward_iterator_tag@std@@@std@@YAPAVPathArgument@Json@@PAV12@00Uforward_iterator_tag@0@U_Nonscalar_ptr_iterator_tag@0@U_Range_checked_iterator_tag@0@@Z ; std::_Copy_opt<Json::PathArgument *,Json::PathArgument *,std::forward_iterator_tag>
PUBLIC	??$_Copy_opt@PAVPathArgument@Json@@PAV12@@std@@YAPAVPathArgument@Json@@PAV12@00Urandom_access_iterator_tag@0@U_Nonscalar_ptr_iterator_tag@0@U_Range_checked_iterator_tag@0@@Z ; std::_Copy_opt<Json::PathArgument *,Json::PathArgument *>
PUBLIC	??$unchecked_copy@PAVPathArgument@Json@@PAV12@@stdext@@YAPAVPathArgument@Json@@PAV12@00@Z ; stdext::unchecked_copy<Json::PathArgument *,Json::PathArgument *>
PUBLIC	??$_Checked_base@PAVPathArgument@Json@@@std@@YAPAVPathArgument@Json@@AAPAV12@U_Unchanged_checked_iterator_base_type_tag@0@@Z ; std::_Checked_base<Json::PathArgument *>
PUBLIC	??$_Checked_base@PAVPathArgument@Json@@@std@@YAPAVPathArgument@Json@@AAPAV12@@Z ; std::_Checked_base<Json::PathArgument *>
PUBLIC	??$_Ptr_cat@PAVPathArgument@Json@@PAV12@@std@@YA?AU_Nonscalar_ptr_iterator_tag@0@AAPAVPathArgument@Json@@0@Z ; std::_Ptr_cat<Json::PathArgument *,Json::PathArgument *>
PUBLIC	??$_Construct@VPathArgument@Json@@V12@@std@@YAXPAVPathArgument@Json@@ABV12@@Z ; std::_Construct<Json::PathArgument,Json::PathArgument>
PUBLIC	?construct@?$allocator@VPathArgument@Json@@@std@@QAEXPAVPathArgument@Json@@ABV34@@Z ; std::allocator<Json::PathArgument>::construct
PUBLIC	??_GPathArgument@Json@@QAEPAXI@Z		; Json::PathArgument::`scalar deleting destructor'
PUBLIC	??$_Destroy@VPathArgument@Json@@@std@@YAXPAVPathArgument@Json@@@Z ; std::_Destroy<Json::PathArgument>
PUBLIC	?destroy@?$allocator@VPathArgument@Json@@@std@@QAEXPAVPathArgument@Json@@@Z ; std::allocator<Json::PathArgument>::destroy
PUBLIC	??$_Uninit_copy@PAVPathArgument@Json@@PAV12@V?$allocator@VPathArgument@Json@@@std@@@std@@YAPAVPathArgument@Json@@PAV12@00AAV?$allocator@VPathArgument@Json@@@0@U_Nonscalar_ptr_iterator_tag@0@U_Range_checked_iterator_tag@0@@Z ; std::_Uninit_copy<Json::PathArgument *,Json::PathArgument *,std::allocator<Json::PathArgument> >
PUBLIC	??$unchecked_uninitialized_copy@PAVPathArgument@Json@@PAV12@V?$allocator@VPathArgument@Json@@@std@@@stdext@@YAPAVPathArgument@Json@@PAV12@00AAV?$allocator@VPathArgument@Json@@@std@@@Z ; stdext::unchecked_uninitialized_copy<Json::PathArgument *,Json::PathArgument *,std::allocator<Json::PathArgument> >
PUBLIC	??$_Ucopy@PAVPathArgument@Json@@@?$vector@VPathArgument@Json@@V?$allocator@VPathArgument@Json@@@std@@@std@@IAEPAVPathArgument@Json@@PAV23@00@Z ; std::vector<Json::PathArgument,std::allocator<Json::PathArgument> >::_Ucopy<Json::PathArgument *>
PUBLIC	??4?$vector@VPathArgument@Json@@V?$allocator@VPathArgument@Json@@@std@@@std@@QAEAAV01@ABV01@@Z ; std::vector<Json::PathArgument,std::allocator<Json::PathArgument> >::operator=
PUBLIC	??0?$deque@PAVValue@Json@@V?$allocator@PAVValue@Json@@@std@@@std@@QAE@ABV01@@Z ; std::deque<Json::Value *,std::allocator<Json::Value *> >::deque<Json::Value *,std::allocator<Json::Value *> >
PUBLIC	??0?$stack@PAVValue@Json@@V?$deque@PAVValue@Json@@V?$allocator@PAVValue@Json@@@std@@@std@@@std@@QAE@ABV01@@Z ; std::stack<Json::Value *,std::deque<Json::Value *,std::allocator<Json::Value *> > >::stack<Json::Value *,std::deque<Json::Value *,std::allocator<Json::Value *> > >
PUBLIC	??0?$deque@VErrorInfo@Reader@Json@@V?$allocator@VErrorInfo@Reader@Json@@@std@@@std@@QAE@ABV01@@Z ; std::deque<Json::Reader::ErrorInfo,std::allocator<Json::Reader::ErrorInfo> >::deque<Json::Reader::ErrorInfo,std::allocator<Json::Reader::ErrorInfo> >
PUBLIC	?begin@?$deque@PAVValue@Json@@V?$allocator@PAVValue@Json@@@std@@@std@@QBE?AV?$_Deque_const_iterator@PAVValue@Json@@V?$allocator@PAVValue@Json@@@std@@$00@2@XZ ; std::deque<Json::Value *,std::allocator<Json::Value *> >::begin
PUBLIC	?end@?$deque@PAVValue@Json@@V?$allocator@PAVValue@Json@@@std@@@std@@QBE?AV?$_Deque_const_iterator@PAVValue@Json@@V?$allocator@PAVValue@Json@@@std@@$00@2@XZ ; std::deque<Json::Value *,std::allocator<Json::Value *> >::end
PUBLIC	?_Make_iter@?$deque@PAVValue@Json@@V?$allocator@PAVValue@Json@@@std@@@std@@QBE?AV?$_Deque_iterator@PAVValue@Json@@V?$allocator@PAVValue@Json@@@std@@$00@2@V?$_Deque_const_iterator@PAVValue@Json@@V?$allocator@PAVValue@Json@@@std@@$00@2@@Z ; std::deque<Json::Value *,std::allocator<Json::Value *> >::_Make_iter
PUBLIC	??G?$_Deque_iterator@PAVValue@Json@@V?$allocator@PAVValue@Json@@@std@@$00@std@@QBEHABV?$_Deque_const_iterator@PAVValue@Json@@V?$allocator@PAVValue@Json@@@std@@$00@1@@Z ; std::_Deque_iterator<Json::Value *,std::allocator<Json::Value *>,1>::operator-
PUBLIC	??F?$_Deque_const_iterator@PAVValue@Json@@V?$allocator@PAVValue@Json@@@std@@$0A@@std@@QAEAAV01@XZ ; std::_Deque_const_iterator<Json::Value *,std::allocator<Json::Value *>,0>::operator--
PUBLIC	??F?$_Deque_iterator@PAVValue@Json@@V?$allocator@PAVValue@Json@@@std@@$0A@@std@@QAEAAV01@XZ ; std::_Deque_iterator<Json::Value *,std::allocator<Json::Value *>,0>::operator--
PUBLIC	??$_Copy_backward_opt@V?$_Deque_iterator@PAVValue@Json@@V?$allocator@PAVValue@Json@@@std@@$0A@@std@@V12@Uforward_iterator_tag@2@@std@@YA?AV?$_Deque_iterator@PAVValue@Json@@V?$allocator@PAVValue@Json@@@std@@$0A@@0@V10@00Uforward_iterator_tag@0@U_Nonscalar_ptr_iterator_tag@0@U_Range_checked_iterator_tag@0@@Z ; std::_Copy_backward_opt<std::_Deque_iterator<Json::Value *,std::allocator<Json::Value *>,0>,std::_Deque_iterator<Json::Value *,std::allocator<Json::Value *>,0>,std::forward_iterator_tag>
PUBLIC	??$_Copy_backward_opt@V?$_Deque_iterator@PAVValue@Json@@V?$allocator@PAVValue@Json@@@std@@$0A@@std@@V?$_Deque_iterator@PAVValue@Json@@V?$allocator@PAVValue@Json@@@std@@$00@2@@std@@YA?AV?$_Deque_iterator@PAVValue@Json@@V?$allocator@PAVValue@Json@@@std@@$00@0@V?$_Deque_iterator@PAVValue@Json@@V?$allocator@PAVValue@Json@@@std@@$0A@@0@0V10@Urandom_access_iterator_tag@0@U_Nonscalar_ptr_iterator_tag@0@U_Range_checked_iterator_tag@0@@Z ; std::_Copy_backward_opt<std::_Deque_iterator<Json::Value *,std::allocator<Json::Value *>,0>,std::_Deque_iterator<Json::Value *,std::allocator<Json::Value *>,1> >
PUBLIC	??$copy_backward@V?$_Deque_iterator@PAVValue@Json@@V?$allocator@PAVValue@Json@@@std@@$00@std@@V12@@std@@YA?AV?$_Deque_iterator@PAVValue@Json@@V?$allocator@PAVValue@Json@@@std@@$00@0@V10@00@Z ; std::copy_backward<std::_Deque_iterator<Json::Value *,std::allocator<Json::Value *>,1>,std::_Deque_iterator<Json::Value *,std::allocator<Json::Value *>,1> >
PUBLIC	??$_Iter_random@V?$_Deque_iterator@PAVValue@Json@@V?$allocator@PAVValue@Json@@@std@@$00@std@@V12@@std@@YA?AUrandom_access_iterator_tag@0@ABV?$_Deque_iterator@PAVValue@Json@@V?$allocator@PAVValue@Json@@@std@@$00@0@0@Z ; std::_Iter_random<std::_Deque_iterator<Json::Value *,std::allocator<Json::Value *>,1>,std::_Deque_iterator<Json::Value *,std::allocator<Json::Value *>,1> >
PUBLIC	??$_Ptr_cat@V?$_Deque_iterator@PAVValue@Json@@V?$allocator@PAVValue@Json@@@std@@$00@std@@V12@@std@@YA?AU_Nonscalar_ptr_iterator_tag@0@AAV?$_Deque_iterator@PAVValue@Json@@V?$allocator@PAVValue@Json@@@std@@$00@0@0@Z ; std::_Ptr_cat<std::_Deque_iterator<Json::Value *,std::allocator<Json::Value *>,1>,std::_Deque_iterator<Json::Value *,std::allocator<Json::Value *>,1> >
PUBLIC	??G?$_Deque_iterator@PAVValue@Json@@V?$allocator@PAVValue@Json@@@std@@$0A@@std@@QBEHABV?$_Deque_const_iterator@PAVValue@Json@@V?$allocator@PAVValue@Json@@@std@@$0A@@1@@Z ; std::_Deque_iterator<Json::Value *,std::allocator<Json::Value *>,0>::operator-
PUBLIC	??$_Copy_opt@V?$_Deque_iterator@PAVValue@Json@@V?$allocator@PAVValue@Json@@@std@@$0A@@std@@V12@Uforward_iterator_tag@2@@std@@YA?AV?$_Deque_iterator@PAVValue@Json@@V?$allocator@PAVValue@Json@@@std@@$0A@@0@V10@00Uforward_iterator_tag@0@U_Nonscalar_ptr_iterator_tag@0@U_Range_checked_iterator_tag@0@@Z ; std::_Copy_opt<std::_Deque_iterator<Json::Value *,std::allocator<Json::Value *>,0>,std::_Deque_iterator<Json::Value *,std::allocator<Json::Value *>,0>,std::forward_iterator_tag>
PUBLIC	??$_Copy_opt@V?$_Deque_iterator@PAVValue@Json@@V?$allocator@PAVValue@Json@@@std@@$0A@@std@@V?$_Deque_iterator@PAVValue@Json@@V?$allocator@PAVValue@Json@@@std@@$00@2@@std@@YA?AV?$_Deque_iterator@PAVValue@Json@@V?$allocator@PAVValue@Json@@@std@@$00@0@V?$_Deque_iterator@PAVValue@Json@@V?$allocator@PAVValue@Json@@@std@@$0A@@0@0V10@Urandom_access_iterator_tag@0@U_Nonscalar_ptr_iterator_tag@0@U_Range_checked_iterator_tag@0@@Z ; std::_Copy_opt<std::_Deque_iterator<Json::Value *,std::allocator<Json::Value *>,0>,std::_Deque_iterator<Json::Value *,std::allocator<Json::Value *>,1> >
PUBLIC	??$copy@V?$_Deque_iterator@PAVValue@Json@@V?$allocator@PAVValue@Json@@@std@@$00@std@@V12@@std@@YA?AV?$_Deque_iterator@PAVValue@Json@@V?$allocator@PAVValue@Json@@@std@@$00@0@V10@00@Z ; std::copy<std::_Deque_iterator<Json::Value *,std::allocator<Json::Value *>,1>,std::_Deque_iterator<Json::Value *,std::allocator<Json::Value *>,1> >
PUBLIC	?erase@?$deque@PAVValue@Json@@V?$allocator@PAVValue@Json@@@std@@@std@@QAE?AV?$_Deque_iterator@PAVValue@Json@@V?$allocator@PAVValue@Json@@@std@@$00@2@V?$_Deque_const_iterator@PAVValue@Json@@V?$allocator@PAVValue@Json@@@std@@$00@2@0@Z ; std::deque<Json::Value *,std::allocator<Json::Value *> >::erase
PUBLIC	?clear@?$deque@PAVValue@Json@@V?$allocator@PAVValue@Json@@@std@@@std@@QAEXXZ ; std::deque<Json::Value *,std::allocator<Json::Value *> >::clear
PUBLIC	??H?$_Deque_const_iterator@PAVValue@Json@@V?$allocator@PAVValue@Json@@@std@@$00@std@@QBE?AV01@H@Z ; std::_Deque_const_iterator<Json::Value *,std::allocator<Json::Value *>,1>::operator+
PUBLIC	??$_Iter_cat@V?$_Deque_const_iterator@PAVValue@Json@@V?$allocator@PAVValue@Json@@@std@@$00@std@@@std@@YA?AUrandom_access_iterator_tag@0@ABV?$_Deque_const_iterator@PAVValue@Json@@V?$allocator@PAVValue@Json@@@std@@$00@0@@Z ; std::_Iter_cat<std::_Deque_const_iterator<Json::Value *,std::allocator<Json::Value *>,1> >
PUBLIC	?push_front@?$deque@PAVValue@Json@@V?$allocator@PAVValue@Json@@@std@@@std@@QAEXABQAVValue@Json@@@Z ; std::deque<Json::Value *,std::allocator<Json::Value *> >::push_front
PUBLIC	?pop_front@?$deque@PAVValue@Json@@V?$allocator@PAVValue@Json@@@std@@@std@@QAEXXZ ; std::deque<Json::Value *,std::allocator<Json::Value *> >::pop_front
PUBLIC	?begin@?$deque@PAVValue@Json@@V?$allocator@PAVValue@Json@@@std@@@std@@QAE?AV?$_Deque_iterator@PAVValue@Json@@V?$allocator@PAVValue@Json@@@std@@$00@2@XZ ; std::deque<Json::Value *,std::allocator<Json::Value *> >::begin
PUBLIC	??A?$_Deque_iterator@PAVValue@Json@@V?$allocator@PAVValue@Json@@@std@@$00@std@@QBEAAPAVValue@Json@@H@Z ; std::_Deque_iterator<Json::Value *,std::allocator<Json::Value *>,1>::operator[]
PUBLIC	??$swap@PAVValue@Json@@@std@@YAXAAPAVValue@Json@@0@Z ; std::swap<Json::Value *>
PUBLIC	??$_Swap_adl@PAVValue@Json@@@std@@YAXAAPAVValue@Json@@0@Z ; std::_Swap_adl<Json::Value *>
PUBLIC	?_Reverse@?$deque@PAVValue@Json@@V?$allocator@PAVValue@Json@@@std@@@std@@QAEXII@Z ; std::deque<Json::Value *,std::allocator<Json::Value *> >::_Reverse
PUBLIC	??E?$_Deque_const_iterator@PAVValue@Json@@V?$allocator@PAVValue@Json@@@std@@$00@std@@QAEAAV01@XZ ; std::_Deque_const_iterator<Json::Value *,std::allocator<Json::Value *>,1>::operator++
PUBLIC	??G?$_Deque_const_iterator@PAVValue@Json@@V?$allocator@PAVValue@Json@@@std@@$00@std@@QBEHABV01@@Z ; std::_Deque_const_iterator<Json::Value *,std::allocator<Json::Value *>,1>::operator-
PUBLIC	??8?$_Deque_const_iterator@PAVValue@Json@@V?$allocator@PAVValue@Json@@@std@@$00@std@@QBE_NABV01@@Z ; std::_Deque_const_iterator<Json::Value *,std::allocator<Json::Value *>,1>::operator==
PUBLIC	??9?$_Deque_const_iterator@PAVValue@Json@@V?$allocator@PAVValue@Json@@@std@@$00@std@@QBE_NABV01@@Z ; std::_Deque_const_iterator<Json::Value *,std::allocator<Json::Value *>,1>::operator!=
PUBLIC	??$_Insert@V?$_Deque_const_iterator@PAVValue@Json@@V?$allocator@PAVValue@Json@@@std@@$00@std@@@?$deque@PAVValue@Json@@V?$allocator@PAVValue@Json@@@std@@@std@@QAEXV?$_Deque_const_iterator@PAVValue@Json@@V?$allocator@PAVValue@Json@@@std@@$00@1@00Uinput_iterator_tag@1@@Z ; std::deque<Json::Value *,std::allocator<Json::Value *> >::_Insert<std::_Deque_const_iterator<Json::Value *,std::allocator<Json::Value *>,1> >
PUBLIC	??$insert@V?$_Deque_const_iterator@PAVValue@Json@@V?$allocator@PAVValue@Json@@@std@@$00@std@@@?$deque@PAVValue@Json@@V?$allocator@PAVValue@Json@@@std@@@std@@QAEXV?$_Deque_const_iterator@PAVValue@Json@@V?$allocator@PAVValue@Json@@@std@@$00@1@00@Z ; std::deque<Json::Value *,std::allocator<Json::Value *> >::insert<std::_Deque_const_iterator<Json::Value *,std::allocator<Json::Value *>,1> >
PUBLIC	?_Checked_iterator_base@?$_Deque_const_iterator@PAVValue@Json@@V?$allocator@PAVValue@Json@@@std@@$00@std@@QBE?AV?$_Deque_const_iterator@PAVValue@Json@@V?$allocator@PAVValue@Json@@@std@@$0A@@2@XZ ; std::_Deque_const_iterator<Json::Value *,std::allocator<Json::Value *>,1>::_Checked_iterator_base
PUBLIC	??$_Checked_base@V?$_Deque_const_iterator@PAVValue@Json@@V?$allocator@PAVValue@Json@@@std@@$00@std@@U_Different_checked_iterator_base_type_tag@2@@std@@YA?AV?$_Deque_const_iterator@PAVValue@Json@@V?$allocator@PAVValue@Json@@@std@@$0A@@0@AAV?$_Deque_const_iterator@PAVValue@Json@@V?$allocator@PAVValue@Json@@@std@@$00@0@U_Different_checked_iterator_base_type_tag@0@@Z ; std::_Checked_base<std::_Deque_const_iterator<Json::Value *,std::allocator<Json::Value *>,1>,std::_Different_checked_iterator_base_type_tag>
PUBLIC	??$_Checked_base@V?$_Deque_const_iterator@PAVValue@Json@@V?$allocator@PAVValue@Json@@@std@@$00@std@@@std@@YA?AV?$_Deque_const_iterator@PAVValue@Json@@V?$allocator@PAVValue@Json@@@std@@$0A@@0@AAV?$_Deque_const_iterator@PAVValue@Json@@V?$allocator@PAVValue@Json@@@std@@$00@0@@Z ; std::_Checked_base<std::_Deque_const_iterator<Json::Value *,std::allocator<Json::Value *>,1> >
PUBLIC	??$_Iter_random@V?$_Deque_const_iterator@PAVValue@Json@@V?$allocator@PAVValue@Json@@@std@@$00@std@@V?$_Deque_iterator@PAVValue@Json@@V?$allocator@PAVValue@Json@@@std@@$00@2@@std@@YA?AUrandom_access_iterator_tag@0@ABV?$_Deque_const_iterator@PAVValue@Json@@V?$allocator@PAVValue@Json@@@std@@$00@0@ABV?$_Deque_iterator@PAVValue@Json@@V?$allocator@PAVValue@Json@@@std@@$00@0@@Z ; std::_Iter_random<std::_Deque_const_iterator<Json::Value *,std::allocator<Json::Value *>,1>,std::_Deque_iterator<Json::Value *,std::allocator<Json::Value *>,1> >
PUBLIC	??$_Ptr_cat@V?$_Deque_const_iterator@PAVValue@Json@@V?$allocator@PAVValue@Json@@@std@@$00@std@@V?$_Deque_iterator@PAVValue@Json@@V?$allocator@PAVValue@Json@@@std@@$00@2@@std@@YA?AU_Nonscalar_ptr_iterator_tag@0@AAV?$_Deque_const_iterator@PAVValue@Json@@V?$allocator@PAVValue@Json@@@std@@$00@0@AAV?$_Deque_iterator@PAVValue@Json@@V?$allocator@PAVValue@Json@@@std@@$00@0@@Z ; std::_Ptr_cat<std::_Deque_const_iterator<Json::Value *,std::allocator<Json::Value *>,1>,std::_Deque_iterator<Json::Value *,std::allocator<Json::Value *>,1> >
PUBLIC	??H?$_Deque_iterator@PAVValue@Json@@V?$allocator@PAVValue@Json@@@std@@$00@std@@QBE?AV01@H@Z ; std::_Deque_iterator<Json::Value *,std::allocator<Json::Value *>,1>::operator+
PUBLIC	??G?$_Deque_const_iterator@PAVValue@Json@@V?$allocator@PAVValue@Json@@@std@@$0A@@std@@QBEHABV01@@Z ; std::_Deque_const_iterator<Json::Value *,std::allocator<Json::Value *>,0>::operator-
PUBLIC	??0?$_Deque_const_iterator@PAVValue@Json@@V?$allocator@PAVValue@Json@@@std@@$0A@@std@@QAE@IPBV_Container_base_aux@1@@Z ; std::_Deque_const_iterator<Json::Value *,std::allocator<Json::Value *>,0>::_Deque_const_iterator<Json::Value *,std::allocator<Json::Value *>,0>
PUBLIC	??0?$_Deque_iterator@PAVValue@Json@@V?$allocator@PAVValue@Json@@@std@@$0A@@std@@QAE@IPBV_Container_base_aux@1@@Z ; std::_Deque_iterator<Json::Value *,std::allocator<Json::Value *>,0>::_Deque_iterator<Json::Value *,std::allocator<Json::Value *>,0>
PUBLIC	?_Checked_iterator_base@?$_Deque_iterator@PAVValue@Json@@V?$allocator@PAVValue@Json@@@std@@$00@std@@QBE?AV?$_Deque_iterator@PAVValue@Json@@V?$allocator@PAVValue@Json@@@std@@$0A@@2@XZ ; std::_Deque_iterator<Json::Value *,std::allocator<Json::Value *>,1>::_Checked_iterator_base
PUBLIC	??$_Checked_base@V?$_Deque_iterator@PAVValue@Json@@V?$allocator@PAVValue@Json@@@std@@$00@std@@U_Different_checked_iterator_base_type_tag@2@@std@@YA?AV?$_Deque_iterator@PAVValue@Json@@V?$allocator@PAVValue@Json@@@std@@$0A@@0@AAV?$_Deque_iterator@PAVValue@Json@@V?$allocator@PAVValue@Json@@@std@@$00@0@U_Different_checked_iterator_base_type_tag@0@@Z ; std::_Checked_base<std::_Deque_iterator<Json::Value *,std::allocator<Json::Value *>,1>,std::_Different_checked_iterator_base_type_tag>
PUBLIC	??$_Checked_base@V?$_Deque_iterator@PAVValue@Json@@V?$allocator@PAVValue@Json@@@std@@$00@std@@@std@@YA?AV?$_Deque_iterator@PAVValue@Json@@V?$allocator@PAVValue@Json@@@std@@$0A@@0@AAV?$_Deque_iterator@PAVValue@Json@@V?$allocator@PAVValue@Json@@@std@@$00@0@@Z ; std::_Checked_base<std::_Deque_iterator<Json::Value *,std::allocator<Json::Value *>,1> >
PUBLIC	??8?$_Deque_const_iterator@PAVValue@Json@@V?$allocator@PAVValue@Json@@@std@@$0A@@std@@QBE_NABV01@@Z ; std::_Deque_const_iterator<Json::Value *,std::allocator<Json::Value *>,0>::operator==
PUBLIC	??9?$_Deque_const_iterator@PAVValue@Json@@V?$allocator@PAVValue@Json@@@std@@$0A@@std@@QBE_NABV01@@Z ; std::_Deque_const_iterator<Json::Value *,std::allocator<Json::Value *>,0>::operator!=
PUBLIC	??D?$_Deque_const_iterator@PAVValue@Json@@V?$allocator@PAVValue@Json@@@std@@$0A@@std@@QBEABQAVValue@Json@@XZ ; std::_Deque_const_iterator<Json::Value *,std::allocator<Json::Value *>,0>::operator*
PUBLIC	??D?$_Deque_iterator@PAVValue@Json@@V?$allocator@PAVValue@Json@@@std@@$0A@@std@@QBEAAPAVValue@Json@@XZ ; std::_Deque_iterator<Json::Value *,std::allocator<Json::Value *>,0>::operator*
PUBLIC	??E?$_Deque_const_iterator@PAVValue@Json@@V?$allocator@PAVValue@Json@@@std@@$0A@@std@@QAEAAV01@XZ ; std::_Deque_const_iterator<Json::Value *,std::allocator<Json::Value *>,0>::operator++
PUBLIC	??E?$_Deque_iterator@PAVValue@Json@@V?$allocator@PAVValue@Json@@@std@@$0A@@std@@QAEAAV01@XZ ; std::_Deque_iterator<Json::Value *,std::allocator<Json::Value *>,0>::operator++
PUBLIC	??$_Copy_opt@V?$_Deque_const_iterator@PAVValue@Json@@V?$allocator@PAVValue@Json@@@std@@$0A@@std@@V?$_Deque_iterator@PAVValue@Json@@V?$allocator@PAVValue@Json@@@std@@$0A@@2@Uforward_iterator_tag@2@@std@@YA?AV?$_Deque_iterator@PAVValue@Json@@V?$allocator@PAVValue@Json@@@std@@$0A@@0@V?$_Deque_const_iterator@PAVValue@Json@@V?$allocator@PAVValue@Json@@@std@@$0A@@0@0V10@Uforward_iterator_tag@0@U_Nonscalar_ptr_iterator_tag@0@U_Range_checked_iterator_tag@0@@Z ; std::_Copy_opt<std::_Deque_const_iterator<Json::Value *,std::allocator<Json::Value *>,0>,std::_Deque_iterator<Json::Value *,std::allocator<Json::Value *>,0>,std::forward_iterator_tag>
PUBLIC	??$_Copy_opt@V?$_Deque_const_iterator@PAVValue@Json@@V?$allocator@PAVValue@Json@@@std@@$0A@@std@@V?$_Deque_iterator@PAVValue@Json@@V?$allocator@PAVValue@Json@@@std@@$00@2@@std@@YA?AV?$_Deque_iterator@PAVValue@Json@@V?$allocator@PAVValue@Json@@@std@@$00@0@V?$_Deque_const_iterator@PAVValue@Json@@V?$allocator@PAVValue@Json@@@std@@$0A@@0@0V10@Urandom_access_iterator_tag@0@U_Nonscalar_ptr_iterator_tag@0@U_Range_checked_iterator_tag@0@@Z ; std::_Copy_opt<std::_Deque_const_iterator<Json::Value *,std::allocator<Json::Value *>,0>,std::_Deque_iterator<Json::Value *,std::allocator<Json::Value *>,1> >
PUBLIC	??$copy@V?$_Deque_const_iterator@PAVValue@Json@@V?$allocator@PAVValue@Json@@@std@@$00@std@@V?$_Deque_iterator@PAVValue@Json@@V?$allocator@PAVValue@Json@@@std@@$00@2@@std@@YA?AV?$_Deque_iterator@PAVValue@Json@@V?$allocator@PAVValue@Json@@@std@@$00@0@V?$_Deque_const_iterator@PAVValue@Json@@V?$allocator@PAVValue@Json@@@std@@$00@0@0V10@@Z ; std::copy<std::_Deque_const_iterator<Json::Value *,std::allocator<Json::Value *>,1>,std::_Deque_iterator<Json::Value *,std::allocator<Json::Value *>,1> >
PUBLIC	??4?$deque@PAVValue@Json@@V?$allocator@PAVValue@Json@@@std@@@std@@QAEAAV01@ABV01@@Z ; std::deque<Json::Value *,std::allocator<Json::Value *> >::operator=
PUBLIC	??4?$stack@PAVValue@Json@@V?$deque@PAVValue@Json@@V?$allocator@PAVValue@Json@@@std@@@std@@@std@@QAEAAV01@ABV01@@Z ; std::stack<Json::Value *,std::deque<Json::Value *,std::allocator<Json::Value *> > >::operator=
PUBLIC	??H?$_Deque_const_iterator@VErrorInfo@Reader@Json@@V?$allocator@VErrorInfo@Reader@Json@@@std@@$00@std@@QBE?AV01@H@Z ; std::_Deque_const_iterator<Json::Reader::ErrorInfo,std::allocator<Json::Reader::ErrorInfo>,1>::operator+
PUBLIC	??$_Iter_cat@V?$_Deque_const_iterator@VErrorInfo@Reader@Json@@V?$allocator@VErrorInfo@Reader@Json@@@std@@$00@std@@@std@@YA?AUrandom_access_iterator_tag@0@ABV?$_Deque_const_iterator@VErrorInfo@Reader@Json@@V?$allocator@VErrorInfo@Reader@Json@@@std@@$00@0@@Z ; std::_Iter_cat<std::_Deque_const_iterator<Json::Reader::ErrorInfo,std::allocator<Json::Reader::ErrorInfo>,1> >
PUBLIC	??$swap@VErrorInfo@Reader@Json@@@std@@YAXAAVErrorInfo@Reader@Json@@0@Z ; std::swap<Json::Reader::ErrorInfo>
PUBLIC	??$_Swap_adl@VErrorInfo@Reader@Json@@@std@@YAXAAVErrorInfo@Reader@Json@@0@Z ; std::_Swap_adl<Json::Reader::ErrorInfo>
PUBLIC	?_Reverse@?$deque@VErrorInfo@Reader@Json@@V?$allocator@VErrorInfo@Reader@Json@@@std@@@std@@QAEXII@Z ; std::deque<Json::Reader::ErrorInfo,std::allocator<Json::Reader::ErrorInfo> >::_Reverse
PUBLIC	??$_Insert@V?$_Deque_const_iterator@VErrorInfo@Reader@Json@@V?$allocator@VErrorInfo@Reader@Json@@@std@@$00@std@@@?$deque@VErrorInfo@Reader@Json@@V?$allocator@VErrorInfo@Reader@Json@@@std@@@std@@QAEXV?$_Deque_const_iterator@VErrorInfo@Reader@Json@@V?$allocator@VErrorInfo@Reader@Json@@@std@@$00@1@00Uinput_iterator_tag@1@@Z ; std::deque<Json::Reader::ErrorInfo,std::allocator<Json::Reader::ErrorInfo> >::_Insert<std::_Deque_const_iterator<Json::Reader::ErrorInfo,std::allocator<Json::Reader::ErrorInfo>,1> >
PUBLIC	??$insert@V?$_Deque_const_iterator@VErrorInfo@Reader@Json@@V?$allocator@VErrorInfo@Reader@Json@@@std@@$00@std@@@?$deque@VErrorInfo@Reader@Json@@V?$allocator@VErrorInfo@Reader@Json@@@std@@@std@@QAEXV?$_Deque_const_iterator@VErrorInfo@Reader@Json@@V?$allocator@VErrorInfo@Reader@Json@@@std@@$00@1@00@Z ; std::deque<Json::Reader::ErrorInfo,std::allocator<Json::Reader::ErrorInfo> >::insert<std::_Deque_const_iterator<Json::Reader::ErrorInfo,std::allocator<Json::Reader::ErrorInfo>,1> >
PUBLIC	?_Checked_iterator_base@?$_Deque_const_iterator@VErrorInfo@Reader@Json@@V?$allocator@VErrorInfo@Reader@Json@@@std@@$00@std@@QBE?AV?$_Deque_const_iterator@VErrorInfo@Reader@Json@@V?$allocator@VErrorInfo@Reader@Json@@@std@@$0A@@2@XZ ; std::_Deque_const_iterator<Json::Reader::ErrorInfo,std::allocator<Json::Reader::ErrorInfo>,1>::_Checked_iterator_base
PUBLIC	??$_Checked_base@V?$_Deque_const_iterator@VErrorInfo@Reader@Json@@V?$allocator@VErrorInfo@Reader@Json@@@std@@$00@std@@U_Different_checked_iterator_base_type_tag@2@@std@@YA?AV?$_Deque_const_iterator@VErrorInfo@Reader@Json@@V?$allocator@VErrorInfo@Reader@Json@@@std@@$0A@@0@AAV?$_Deque_const_iterator@VErrorInfo@Reader@Json@@V?$allocator@VErrorInfo@Reader@Json@@@std@@$00@0@U_Different_checked_iterator_base_type_tag@0@@Z ; std::_Checked_base<std::_Deque_const_iterator<Json::Reader::ErrorInfo,std::allocator<Json::Reader::ErrorInfo>,1>,std::_Different_checked_iterator_base_type_tag>
PUBLIC	??$_Checked_base@V?$_Deque_const_iterator@VErrorInfo@Reader@Json@@V?$allocator@VErrorInfo@Reader@Json@@@std@@$00@std@@@std@@YA?AV?$_Deque_const_iterator@VErrorInfo@Reader@Json@@V?$allocator@VErrorInfo@Reader@Json@@@std@@$0A@@0@AAV?$_Deque_const_iterator@VErrorInfo@Reader@Json@@V?$allocator@VErrorInfo@Reader@Json@@@std@@$00@0@@Z ; std::_Checked_base<std::_Deque_const_iterator<Json::Reader::ErrorInfo,std::allocator<Json::Reader::ErrorInfo>,1> >
PUBLIC	??$_Iter_random@V?$_Deque_const_iterator@VErrorInfo@Reader@Json@@V?$allocator@VErrorInfo@Reader@Json@@@std@@$00@std@@V?$_Deque_iterator@VErrorInfo@Reader@Json@@V?$allocator@VErrorInfo@Reader@Json@@@std@@$00@2@@std@@YA?AUrandom_access_iterator_tag@0@ABV?$_Deque_const_iterator@VErrorInfo@Reader@Json@@V?$allocator@VErrorInfo@Reader@Json@@@std@@$00@0@ABV?$_Deque_iterator@VErrorInfo@Reader@Json@@V?$allocator@VErrorInfo@Reader@Json@@@std@@$00@0@@Z ; std::_Iter_random<std::_Deque_const_iterator<Json::Reader::ErrorInfo,std::allocator<Json::Reader::ErrorInfo>,1>,std::_Deque_iterator<Json::Reader::ErrorInfo,std::allocator<Json::Reader::ErrorInfo>,1> >
PUBLIC	??$_Ptr_cat@V?$_Deque_const_iterator@VErrorInfo@Reader@Json@@V?$allocator@VErrorInfo@Reader@Json@@@std@@$00@std@@V?$_Deque_iterator@VErrorInfo@Reader@Json@@V?$allocator@VErrorInfo@Reader@Json@@@std@@$00@2@@std@@YA?AU_Nonscalar_ptr_iterator_tag@0@AAV?$_Deque_const_iterator@VErrorInfo@Reader@Json@@V?$allocator@VErrorInfo@Reader@Json@@@std@@$00@0@AAV?$_Deque_iterator@VErrorInfo@Reader@Json@@V?$allocator@VErrorInfo@Reader@Json@@@std@@$00@0@@Z ; std::_Ptr_cat<std::_Deque_const_iterator<Json::Reader::ErrorInfo,std::allocator<Json::Reader::ErrorInfo>,1>,std::_Deque_iterator<Json::Reader::ErrorInfo,std::allocator<Json::Reader::ErrorInfo>,1> >
PUBLIC	??$_Copy_opt@V?$_Deque_const_iterator@VErrorInfo@Reader@Json@@V?$allocator@VErrorInfo@Reader@Json@@@std@@$0A@@std@@V?$_Deque_iterator@VErrorInfo@Reader@Json@@V?$allocator@VErrorInfo@Reader@Json@@@std@@$0A@@2@Uforward_iterator_tag@2@@std@@YA?AV?$_Deque_iterator@VErrorInfo@Reader@Json@@V?$allocator@VErrorInfo@Reader@Json@@@std@@$0A@@0@V?$_Deque_const_iterator@VErrorInfo@Reader@Json@@V?$allocator@VErrorInfo@Reader@Json@@@std@@$0A@@0@0V10@Uforward_iterator_tag@0@U_Nonscalar_ptr_iterator_tag@0@U_Range_checked_iterator_tag@0@@Z ; std::_Copy_opt<std::_Deque_const_iterator<Json::Reader::ErrorInfo,std::allocator<Json::Reader::ErrorInfo>,0>,std::_Deque_iterator<Json::Reader::ErrorInfo,std::allocator<Json::Reader::ErrorInfo>,0>,std::forward_iterator_tag>
PUBLIC	??$_Copy_opt@V?$_Deque_const_iterator@VErrorInfo@Reader@Json@@V?$allocator@VErrorInfo@Reader@Json@@@std@@$0A@@std@@V?$_Deque_iterator@VErrorInfo@Reader@Json@@V?$allocator@VErrorInfo@Reader@Json@@@std@@$00@2@@std@@YA?AV?$_Deque_iterator@VErrorInfo@Reader@Json@@V?$allocator@VErrorInfo@Reader@Json@@@std@@$00@0@V?$_Deque_const_iterator@VErrorInfo@Reader@Json@@V?$allocator@VErrorInfo@Reader@Json@@@std@@$0A@@0@0V10@Urandom_access_iterator_tag@0@U_Nonscalar_ptr_iterator_tag@0@U_Range_checked_iterator_tag@0@@Z ; std::_Copy_opt<std::_Deque_const_iterator<Json::Reader::ErrorInfo,std::allocator<Json::Reader::ErrorInfo>,0>,std::_Deque_iterator<Json::Reader::ErrorInfo,std::allocator<Json::Reader::ErrorInfo>,1> >
PUBLIC	??$copy@V?$_Deque_const_iterator@VErrorInfo@Reader@Json@@V?$allocator@VErrorInfo@Reader@Json@@@std@@$00@std@@V?$_Deque_iterator@VErrorInfo@Reader@Json@@V?$allocator@VErrorInfo@Reader@Json@@@std@@$00@2@@std@@YA?AV?$_Deque_iterator@VErrorInfo@Reader@Json@@V?$allocator@VErrorInfo@Reader@Json@@@std@@$00@0@V?$_Deque_const_iterator@VErrorInfo@Reader@Json@@V?$allocator@VErrorInfo@Reader@Json@@@std@@$00@0@0V10@@Z ; std::copy<std::_Deque_const_iterator<Json::Reader::ErrorInfo,std::allocator<Json::Reader::ErrorInfo>,1>,std::_Deque_iterator<Json::Reader::ErrorInfo,std::allocator<Json::Reader::ErrorInfo>,1> >
PUBLIC	??4?$deque@VErrorInfo@Reader@Json@@V?$allocator@VErrorInfo@Reader@Json@@@std@@@std@@QAEAAV01@ABV01@@Z ; std::deque<Json::Reader::ErrorInfo,std::allocator<Json::Reader::ErrorInfo> >::operator=
PUBLIC	??0?$allocator@PAVValue@Json@@@std@@QAE@XZ	; std::allocator<Json::Value *>::allocator<Json::Value *>
PUBLIC	??$?0PAVValue@Json@@@?$allocator@V_Aux_cont@std@@@std@@QAE@ABV?$allocator@PAVValue@Json@@@1@@Z ; std::allocator<std::_Aux_cont>::allocator<std::_Aux_cont><Json::Value *>
PUBLIC	??0?$_Container_base_aux_alloc_real@V?$allocator@PAVValue@Json@@@std@@@std@@IAE@V?$allocator@PAVValue@Json@@@1@@Z ; std::_Container_base_aux_alloc_real<std::allocator<Json::Value *> >::_Container_base_aux_alloc_real<std::allocator<Json::Value *> >
PUBLIC	??0?$allocator@PAVValue@Json@@@std@@QAE@ABV01@@Z ; std::allocator<Json::Value *>::allocator<Json::Value *>
PUBLIC	??$?0PAVValue@Json@@@?$allocator@PAPAVValue@Json@@@std@@QAE@ABV?$allocator@PAVValue@Json@@@1@@Z ; std::allocator<Json::Value * *>::allocator<Json::Value * *><Json::Value *>
PUBLIC	??0?$_Deque_map@PAVValue@Json@@V?$allocator@PAVValue@Json@@@std@@@std@@IAE@V?$allocator@PAVValue@Json@@@1@@Z ; std::_Deque_map<Json::Value *,std::allocator<Json::Value *> >::_Deque_map<Json::Value *,std::allocator<Json::Value *> >
PUBLIC	??0?$_Deque_val@PAVValue@Json@@V?$allocator@PAVValue@Json@@@std@@@std@@IAE@V?$allocator@PAVValue@Json@@@1@@Z ; std::_Deque_val<Json::Value *,std::allocator<Json::Value *> >::_Deque_val<Json::Value *,std::allocator<Json::Value *> >
PUBLIC	??0?$deque@PAVValue@Json@@V?$allocator@PAVValue@Json@@@std@@@std@@QAE@XZ ; std::deque<Json::Value *,std::allocator<Json::Value *> >::deque<Json::Value *,std::allocator<Json::Value *> >
PUBLIC	??0?$stack@PAVValue@Json@@V?$deque@PAVValue@Json@@V?$allocator@PAVValue@Json@@@std@@@std@@@std@@QAE@XZ ; std::stack<Json::Value *,std::deque<Json::Value *,std::allocator<Json::Value *> > >::stack<Json::Value *,std::deque<Json::Value *,std::allocator<Json::Value *> > >
PUBLIC	??1?$_Container_base_aux_alloc_real@V?$allocator@PAVValue@Json@@@std@@@std@@IAE@XZ ; std::_Container_base_aux_alloc_real<std::allocator<Json::Value *> >::~_Container_base_aux_alloc_real<std::allocator<Json::Value *> >
PUBLIC	??1?$_Deque_map@PAVValue@Json@@V?$allocator@PAVValue@Json@@@std@@@std@@QAE@XZ ; std::_Deque_map<Json::Value *,std::allocator<Json::Value *> >::~_Deque_map<Json::Value *,std::allocator<Json::Value *> >
PUBLIC	??1?$_Deque_val@PAVValue@Json@@V?$allocator@PAVValue@Json@@@std@@@std@@QAE@XZ ; std::_Deque_val<Json::Value *,std::allocator<Json::Value *> >::~_Deque_val<Json::Value *,std::allocator<Json::Value *> >
PUBLIC	?deallocate@?$allocator@PAVValue@Json@@@std@@QAEXPAPAVValue@Json@@I@Z ; std::allocator<Json::Value *>::deallocate
PUBLIC	??$_Destroy@PAPAVValue@Json@@@std@@YAXPAPAPAVValue@Json@@@Z ; std::_Destroy<Json::Value * *>
PUBLIC	?destroy@?$allocator@PAPAVValue@Json@@@std@@QAEXPAPAPAVValue@Json@@@Z ; std::allocator<Json::Value * *>::destroy
PUBLIC	?_Tidy@?$deque@PAVValue@Json@@V?$allocator@PAVValue@Json@@@std@@@std@@IAEXXZ ; std::deque<Json::Value *,std::allocator<Json::Value *> >::_Tidy
PUBLIC	??1?$deque@PAVValue@Json@@V?$allocator@PAVValue@Json@@@std@@@std@@QAE@XZ ; std::deque<Json::Value *,std::allocator<Json::Value *> >::~deque<Json::Value *,std::allocator<Json::Value *> >
PUBLIC	??1?$stack@PAVValue@Json@@V?$deque@PAVValue@Json@@V?$allocator@PAVValue@Json@@@std@@@std@@@std@@QAE@XZ ; std::stack<Json::Value *,std::deque<Json::Value *,std::allocator<Json::Value *> > >::~stack<Json::Value *,std::deque<Json::Value *,std::allocator<Json::Value *> > >
PUBLIC	??0?$allocator@VErrorInfo@Reader@Json@@@std@@QAE@XZ ; std::allocator<Json::Reader::ErrorInfo>::allocator<Json::Reader::ErrorInfo>
PUBLIC	??0_Aux_cont@std@@QAE@QBV_Container_base_aux@1@@Z ; std::_Aux_cont::_Aux_cont
PUBLIC	??0_Container_base_aux@std@@QAE@XZ		; std::_Container_base_aux::_Container_base_aux
PUBLIC	??$_Allocate@V_Aux_cont@std@@@std@@YAPAV_Aux_cont@0@IPAV10@@Z ; std::_Allocate<std::_Aux_cont>
PUBLIC	?allocate@?$allocator@V_Aux_cont@std@@@std@@QAEPAV_Aux_cont@2@I@Z ; std::allocator<std::_Aux_cont>::allocate
PUBLIC	??$?0VErrorInfo@Reader@Json@@@?$allocator@V_Aux_cont@std@@@std@@QAE@ABV?$allocator@VErrorInfo@Reader@Json@@@1@@Z ; std::allocator<std::_Aux_cont>::allocator<std::_Aux_cont><Json::Reader::ErrorInfo>
PUBLIC	??0?$_Container_base_aux_alloc_real@V?$allocator@VErrorInfo@Reader@Json@@@std@@@std@@IAE@V?$allocator@VErrorInfo@Reader@Json@@@1@@Z ; std::_Container_base_aux_alloc_real<std::allocator<Json::Reader::ErrorInfo> >::_Container_base_aux_alloc_real<std::allocator<Json::Reader::ErrorInfo> >
PUBLIC	??0?$allocator@VErrorInfo@Reader@Json@@@std@@QAE@ABV01@@Z ; std::allocator<Json::Reader::ErrorInfo>::allocator<Json::Reader::ErrorInfo>
PUBLIC	??$?0VErrorInfo@Reader@Json@@@?$allocator@PAVErrorInfo@Reader@Json@@@std@@QAE@ABV?$allocator@VErrorInfo@Reader@Json@@@1@@Z ; std::allocator<Json::Reader::ErrorInfo *>::allocator<Json::Reader::ErrorInfo *><Json::Reader::ErrorInfo>
PUBLIC	??0?$_Deque_map@VErrorInfo@Reader@Json@@V?$allocator@VErrorInfo@Reader@Json@@@std@@@std@@IAE@V?$allocator@VErrorInfo@Reader@Json@@@1@@Z ; std::_Deque_map<Json::Reader::ErrorInfo,std::allocator<Json::Reader::ErrorInfo> >::_Deque_map<Json::Reader::ErrorInfo,std::allocator<Json::Reader::ErrorInfo> >
PUBLIC	??0?$_Deque_val@VErrorInfo@Reader@Json@@V?$allocator@VErrorInfo@Reader@Json@@@std@@@std@@IAE@V?$allocator@VErrorInfo@Reader@Json@@@1@@Z ; std::_Deque_val<Json::Reader::ErrorInfo,std::allocator<Json::Reader::ErrorInfo> >::_Deque_val<Json::Reader::ErrorInfo,std::allocator<Json::Reader::ErrorInfo> >
PUBLIC	??0?$deque@VErrorInfo@Reader@Json@@V?$allocator@VErrorInfo@Reader@Json@@@std@@@std@@QAE@XZ ; std::deque<Json::Reader::ErrorInfo,std::allocator<Json::Reader::ErrorInfo> >::deque<Json::Reader::ErrorInfo,std::allocator<Json::Reader::ErrorInfo> >
PUBLIC	??1_Container_base_aux@std@@QAE@XZ		; std::_Container_base_aux::~_Container_base_aux
PUBLIC	?deallocate@?$allocator@V_Aux_cont@std@@@std@@QAEXPAV_Aux_cont@2@I@Z ; std::allocator<std::_Aux_cont>::deallocate
PUBLIC	??1?$_Container_base_aux_alloc_real@V?$allocator@VErrorInfo@Reader@Json@@@std@@@std@@IAE@XZ ; std::_Container_base_aux_alloc_real<std::allocator<Json::Reader::ErrorInfo> >::~_Container_base_aux_alloc_real<std::allocator<Json::Reader::ErrorInfo> >
PUBLIC	??1?$_Deque_map@VErrorInfo@Reader@Json@@V?$allocator@VErrorInfo@Reader@Json@@@std@@@std@@QAE@XZ ; std::_Deque_map<Json::Reader::ErrorInfo,std::allocator<Json::Reader::ErrorInfo> >::~_Deque_map<Json::Reader::ErrorInfo,std::allocator<Json::Reader::ErrorInfo> >
PUBLIC	??1?$_Deque_val@VErrorInfo@Reader@Json@@V?$allocator@VErrorInfo@Reader@Json@@@std@@@std@@QAE@XZ ; std::_Deque_val<Json::Reader::ErrorInfo,std::allocator<Json::Reader::ErrorInfo> >::~_Deque_val<Json::Reader::ErrorInfo,std::allocator<Json::Reader::ErrorInfo> >
PUBLIC	??1?$deque@VErrorInfo@Reader@Json@@V?$allocator@VErrorInfo@Reader@Json@@@std@@@std@@QAE@XZ ; std::deque<Json::Reader::ErrorInfo,std::allocator<Json::Reader::ErrorInfo> >::~deque<Json::Reader::ErrorInfo,std::allocator<Json::Reader::ErrorInfo> >
PUBLIC	?empty@?$stack@PAVValue@Json@@V?$deque@PAVValue@Json@@V?$allocator@PAVValue@Json@@@std@@@std@@@std@@QBE_NXZ ; std::stack<Json::Value *,std::deque<Json::Value *,std::allocator<Json::Value *> > >::empty
PUBLIC	?deallocate@?$allocator@VErrorInfo@Reader@Json@@@std@@QAEXPAVErrorInfo@Reader@Json@@I@Z ; std::allocator<Json::Reader::ErrorInfo>::deallocate
PUBLIC	??$_Destroy@PAVErrorInfo@Reader@Json@@@std@@YAXPAPAVErrorInfo@Reader@Json@@@Z ; std::_Destroy<Json::Reader::ErrorInfo *>
PUBLIC	?destroy@?$allocator@PAVErrorInfo@Reader@Json@@@std@@QAEXPAPAVErrorInfo@Reader@Json@@@Z ; std::allocator<Json::Reader::ErrorInfo *>::destroy
PUBLIC	?_Tidy@?$deque@VErrorInfo@Reader@Json@@V?$allocator@VErrorInfo@Reader@Json@@@std@@@std@@IAEXXZ ; std::deque<Json::Reader::ErrorInfo,std::allocator<Json::Reader::ErrorInfo> >::_Tidy
PUBLIC	?clear@?$deque@VErrorInfo@Reader@Json@@V?$allocator@VErrorInfo@Reader@Json@@@std@@@std@@QAEXXZ ; std::deque<Json::Reader::ErrorInfo,std::allocator<Json::Reader::ErrorInfo> >::clear
PUBLIC	??$_Allocate@PAVValue@Json@@@std@@YAPAPAVValue@Json@@IPAPAV12@@Z ; std::_Allocate<Json::Value *>
PUBLIC	?allocate@?$allocator@PAVValue@Json@@@std@@QAEPAPAVValue@Json@@I@Z ; std::allocator<Json::Value *>::allocate
PUBLIC	??$_Construct@PAVValue@Json@@PAV12@@std@@YAXPAPAVValue@Json@@ABQAV12@@Z ; std::_Construct<Json::Value *,Json::Value *>
PUBLIC	?construct@?$allocator@PAVValue@Json@@@std@@QAEXPAPAVValue@Json@@ABQAV34@@Z ; std::allocator<Json::Value *>::construct
PUBLIC	?deallocate@?$allocator@PAPAVValue@Json@@@std@@QAEXPAPAPAVValue@Json@@I@Z ; std::allocator<Json::Value * *>::deallocate
PUBLIC	??$_Allocate@PAPAVValue@Json@@@std@@YAPAPAPAVValue@Json@@IPAPAPAV12@@Z ; std::_Allocate<Json::Value * *>
PUBLIC	?allocate@?$allocator@PAPAVValue@Json@@@std@@QAEPAPAPAVValue@Json@@I@Z ; std::allocator<Json::Value * *>::allocate
PUBLIC	?max_size@?$allocator@PAVValue@Json@@@std@@QBEIXZ ; std::allocator<Json::Value *>::max_size
PUBLIC	?max_size@?$deque@PAVValue@Json@@V?$allocator@PAVValue@Json@@@std@@@std@@QBEIXZ ; std::deque<Json::Value *,std::allocator<Json::Value *> >::max_size
PUBLIC	?_Xlen@?$deque@PAVValue@Json@@V?$allocator@PAVValue@Json@@@std@@@std@@KAXXZ ; std::deque<Json::Value *,std::allocator<Json::Value *> >::_Xlen
PUBLIC	??$_Uninit_copy@PAPAPAVValue@Json@@PAPAPAV12@V?$allocator@PAPAVValue@Json@@@std@@@std@@YAPAPAPAVValue@Json@@PAPAPAV12@00AAV?$allocator@PAPAVValue@Json@@@0@U_Scalar_ptr_iterator_tag@0@U_Range_checked_iterator_tag@0@@Z ; std::_Uninit_copy<Json::Value * * *,Json::Value * * *,std::allocator<Json::Value * *> >
PUBLIC	??$unchecked_uninitialized_copy@PAPAPAVValue@Json@@PAPAPAV12@V?$allocator@PAPAVValue@Json@@@std@@@stdext@@YAPAPAPAVValue@Json@@PAPAPAV12@00AAV?$allocator@PAPAVValue@Json@@@std@@@Z ; stdext::unchecked_uninitialized_copy<Json::Value * * *,Json::Value * * *,std::allocator<Json::Value * *> >
PUBLIC	??$_Iter_cat@PAPAPAVValue@Json@@@std@@YA?AUrandom_access_iterator_tag@0@ABQAPAPAVValue@Json@@@Z ; std::_Iter_cat<Json::Value * * *>
PUBLIC	??$_Checked_base@PAPAPAVValue@Json@@@std@@YAPAPAPAVValue@Json@@AAPAPAPAV12@U_Unchanged_checked_iterator_base_type_tag@0@@Z ; std::_Checked_base<Json::Value * * *>
PUBLIC	??$_Checked_base@PAPAPAVValue@Json@@@std@@YAPAPAPAVValue@Json@@AAPAPAPAV12@@Z ; std::_Checked_base<Json::Value * * *>
PUBLIC	??$_Fill_n@PAPAPAVValue@Json@@IPAPAV12@@std@@YAXPAPAPAVValue@Json@@IABQAPAV12@U_Range_checked_iterator_tag@0@@Z ; std::_Fill_n<Json::Value * * *,unsigned int,Json::Value * *>
PUBLIC	??$_Fill_n@PAPAPAVValue@Json@@IPAPAV12@@std@@YAXPAPAPAVValue@Json@@IABQAPAV12@Urandom_access_iterator_tag@0@U_Range_checked_iterator_tag@0@@Z ; std::_Fill_n<Json::Value * * *,unsigned int,Json::Value * *>
PUBLIC	??$unchecked_fill_n@PAPAPAVValue@Json@@IPAPAV12@@stdext@@YAXPAPAPAVValue@Json@@IABQAPAV12@@Z ; stdext::unchecked_fill_n<Json::Value * * *,unsigned int,Json::Value * *>
PUBLIC	??$_Uninit_fill_n@PAPAPAVValue@Json@@IPAPAV12@V?$allocator@PAPAVValue@Json@@@std@@@std@@YAXPAPAPAVValue@Json@@IABQAPAV12@AAV?$allocator@PAPAVValue@Json@@@0@U_Scalar_ptr_iterator_tag@0@U_Range_checked_iterator_tag@0@@Z ; std::_Uninit_fill_n<Json::Value * * *,unsigned int,Json::Value * *,std::allocator<Json::Value * *> >
PUBLIC	??$unchecked_uninitialized_fill_n@PAPAPAVValue@Json@@IPAPAV12@V?$allocator@PAPAVValue@Json@@@std@@@stdext@@YAXPAPAPAVValue@Json@@IABQAPAV12@AAV?$allocator@PAPAVValue@Json@@@std@@@Z ; stdext::unchecked_uninitialized_fill_n<Json::Value * * *,unsigned int,Json::Value * *,std::allocator<Json::Value * *> >
PUBLIC	??$_Ptr_cat@PAPAPAVValue@Json@@PAPAPAV12@@std@@YA?AU_Scalar_ptr_iterator_tag@0@AAPAPAPAVValue@Json@@0@Z ; std::_Ptr_cat<Json::Value * * *,Json::Value * * *>
PUBLIC	??$_Destroy_range@V?$allocator@PAPAVValue@Json@@@std@@@std@@YAXPAPAPAVValue@Json@@0AAV?$allocator@PAPAVValue@Json@@@0@U_Scalar_ptr_iterator_tag@0@@Z ; std::_Destroy_range<std::allocator<Json::Value * *> >
PUBLIC	??$_Destroy_range@V?$allocator@PAPAVValue@Json@@@std@@@std@@YAXPAPAPAVValue@Json@@0AAV?$allocator@PAPAVValue@Json@@@0@@Z ; std::_Destroy_range<std::allocator<Json::Value * *> >
PUBLIC	?_Growmap@?$deque@PAVValue@Json@@V?$allocator@PAVValue@Json@@@std@@@std@@IAEXI@Z ; std::deque<Json::Value *,std::allocator<Json::Value *> >::_Growmap
PUBLIC	?push_back@?$deque@PAVValue@Json@@V?$allocator@PAVValue@Json@@@std@@@std@@QAEXABQAVValue@Json@@@Z ; std::deque<Json::Value *,std::allocator<Json::Value *> >::push_back
PUBLIC	?push@?$stack@PAVValue@Json@@V?$deque@PAVValue@Json@@V?$allocator@PAVValue@Json@@@std@@@std@@@std@@QAEXABQAVValue@Json@@@Z ; std::stack<Json::Value *,std::deque<Json::Value *,std::allocator<Json::Value *> > >::push
PUBLIC	??$_Destroy@PAVValue@Json@@@std@@YAXPAPAVValue@Json@@@Z ; std::_Destroy<Json::Value *>
PUBLIC	?destroy@?$allocator@PAVValue@Json@@@std@@QAEXPAPAVValue@Json@@@Z ; std::allocator<Json::Value *>::destroy
PUBLIC	?empty@?$deque@PAVValue@Json@@V?$allocator@PAVValue@Json@@@std@@@std@@QBE_NXZ ; std::deque<Json::Value *,std::allocator<Json::Value *> >::empty
PUBLIC	?pop_back@?$deque@PAVValue@Json@@V?$allocator@PAVValue@Json@@@std@@@std@@QAEXXZ ; std::deque<Json::Value *,std::allocator<Json::Value *> >::pop_back
PUBLIC	?pop@?$stack@PAVValue@Json@@V?$deque@PAVValue@Json@@V?$allocator@PAVValue@Json@@@std@@@std@@@std@@QAEXXZ ; std::stack<Json::Value *,std::deque<Json::Value *,std::allocator<Json::Value *> > >::pop
PUBLIC	??0ErrorInfo@Reader@Json@@QAE@XZ		; Json::Reader::ErrorInfo::ErrorInfo
PUBLIC	?end@?$deque@VErrorInfo@Reader@Json@@V?$allocator@VErrorInfo@Reader@Json@@@std@@@std@@QAE?AV?$_Deque_iterator@VErrorInfo@Reader@Json@@V?$allocator@VErrorInfo@Reader@Json@@@std@@$00@2@XZ ; std::deque<Json::Reader::ErrorInfo,std::allocator<Json::Reader::ErrorInfo> >::end
PUBLIC	?_Make_iter@?$deque@VErrorInfo@Reader@Json@@V?$allocator@VErrorInfo@Reader@Json@@@std@@@std@@QBE?AV?$_Deque_iterator@VErrorInfo@Reader@Json@@V?$allocator@VErrorInfo@Reader@Json@@@std@@$00@2@V?$_Deque_const_iterator@VErrorInfo@Reader@Json@@V?$allocator@VErrorInfo@Reader@Json@@@std@@$00@2@@Z ; std::deque<Json::Reader::ErrorInfo,std::allocator<Json::Reader::ErrorInfo> >::_Make_iter
PUBLIC	??G?$_Deque_iterator@VErrorInfo@Reader@Json@@V?$allocator@VErrorInfo@Reader@Json@@@std@@$00@std@@QBEHABV?$_Deque_const_iterator@VErrorInfo@Reader@Json@@V?$allocator@VErrorInfo@Reader@Json@@@std@@$00@1@@Z ; std::_Deque_iterator<Json::Reader::ErrorInfo,std::allocator<Json::Reader::ErrorInfo>,1>::operator-
PUBLIC	?erase@?$deque@VErrorInfo@Reader@Json@@V?$allocator@VErrorInfo@Reader@Json@@@std@@@std@@QAE?AV?$_Deque_iterator@VErrorInfo@Reader@Json@@V?$allocator@VErrorInfo@Reader@Json@@@std@@$00@2@V?$_Deque_const_iterator@VErrorInfo@Reader@Json@@V?$allocator@VErrorInfo@Reader@Json@@@std@@$00@2@0@Z ; std::deque<Json::Reader::ErrorInfo,std::allocator<Json::Reader::ErrorInfo> >::erase
PUBLIC	??0?$_Deque_iterator@VErrorInfo@Reader@Json@@V?$allocator@VErrorInfo@Reader@Json@@@std@@$00@std@@QAE@IPBV_Container_base_aux@1@@Z ; std::_Deque_iterator<Json::Reader::ErrorInfo,std::allocator<Json::Reader::ErrorInfo>,1>::_Deque_iterator<Json::Reader::ErrorInfo,std::allocator<Json::Reader::ErrorInfo>,1>
PUBLIC	?begin@?$deque@VErrorInfo@Reader@Json@@V?$allocator@VErrorInfo@Reader@Json@@@std@@@std@@QAE?AV?$_Deque_iterator@VErrorInfo@Reader@Json@@V?$allocator@VErrorInfo@Reader@Json@@@std@@$00@2@XZ ; std::deque<Json::Reader::ErrorInfo,std::allocator<Json::Reader::ErrorInfo> >::begin
PUBLIC	?push_front@?$deque@VErrorInfo@Reader@Json@@V?$allocator@VErrorInfo@Reader@Json@@@std@@@std@@QAEXABVErrorInfo@Reader@Json@@@Z ; std::deque<Json::Reader::ErrorInfo,std::allocator<Json::Reader::ErrorInfo> >::push_front
PUBLIC	?pop_front@?$deque@VErrorInfo@Reader@Json@@V?$allocator@VErrorInfo@Reader@Json@@@std@@@std@@QAEXXZ ; std::deque<Json::Reader::ErrorInfo,std::allocator<Json::Reader::ErrorInfo> >::pop_front
PUBLIC	??$_Allocate@VErrorInfo@Reader@Json@@@std@@YAPAVErrorInfo@Reader@Json@@IPAV123@@Z ; std::_Allocate<Json::Reader::ErrorInfo>
PUBLIC	?allocate@?$allocator@VErrorInfo@Reader@Json@@@std@@QAEPAVErrorInfo@Reader@Json@@I@Z ; std::allocator<Json::Reader::ErrorInfo>::allocate
PUBLIC	??2@YAPAXIPAX@Z					; operator new
PUBLIC	??3@YAXPAX0@Z					; operator delete
PUBLIC	??0ErrorInfo@Reader@Json@@QAE@ABV012@@Z		; Json::Reader::ErrorInfo::ErrorInfo
PUBLIC	??$_Construct@VErrorInfo@Reader@Json@@V123@@std@@YAXPAVErrorInfo@Reader@Json@@ABV123@@Z ; std::_Construct<Json::Reader::ErrorInfo,Json::Reader::ErrorInfo>
PUBLIC	?construct@?$allocator@VErrorInfo@Reader@Json@@@std@@QAEXPAVErrorInfo@Reader@Json@@ABV345@@Z ; std::allocator<Json::Reader::ErrorInfo>::construct
PUBLIC	?deallocate@?$allocator@PAVErrorInfo@Reader@Json@@@std@@QAEXPAPAVErrorInfo@Reader@Json@@I@Z ; std::allocator<Json::Reader::ErrorInfo *>::deallocate
PUBLIC	??0bad_alloc@std@@QAE@PBD@Z			; std::bad_alloc::bad_alloc
PUBLIC	??1bad_alloc@std@@UAE@XZ			; std::bad_alloc::~bad_alloc
PUBLIC	??_Gbad_alloc@std@@UAEPAXI@Z			; std::bad_alloc::`scalar deleting destructor'
PUBLIC	??0bad_alloc@std@@QAE@ABV01@@Z			; std::bad_alloc::bad_alloc
PUBLIC	??$_Allocate@PAVErrorInfo@Reader@Json@@@std@@YAPAPAVErrorInfo@Reader@Json@@IPAPAV123@@Z ; std::_Allocate<Json::Reader::ErrorInfo *>
PUBLIC	?allocate@?$allocator@PAVErrorInfo@Reader@Json@@@std@@QAEPAPAVErrorInfo@Reader@Json@@I@Z ; std::allocator<Json::Reader::ErrorInfo *>::allocate
PUBLIC	?max_size@?$allocator@VErrorInfo@Reader@Json@@@std@@QBEIXZ ; std::allocator<Json::Reader::ErrorInfo>::max_size
PUBLIC	?max_size@?$deque@VErrorInfo@Reader@Json@@V?$allocator@VErrorInfo@Reader@Json@@@std@@@std@@QBEIXZ ; std::deque<Json::Reader::ErrorInfo,std::allocator<Json::Reader::ErrorInfo> >::max_size
PUBLIC	??0logic_error@std@@QAE@ABV?$basic_string@DU?$char_traits@D@std@@V?$allocator@D@2@@1@@Z ; std::logic_error::logic_error
PUBLIC	??0length_error@std@@QAE@ABV?$basic_string@DU?$char_traits@D@std@@V?$allocator@D@2@@1@@Z ; std::length_error::length_error
PUBLIC	??0logic_error@std@@QAE@ABV01@@Z		; std::logic_error::logic_error
PUBLIC	?what@logic_error@std@@UBEPBDXZ			; std::logic_error::what
PUBLIC	??_Glogic_error@std@@UAEPAXI@Z			; std::logic_error::`scalar deleting destructor'
PUBLIC	??1logic_error@std@@UAE@XZ			; std::logic_error::~logic_error
PUBLIC	??1length_error@std@@UAE@XZ			; std::length_error::~length_error
PUBLIC	??_Glength_error@std@@UAEPAXI@Z			; std::length_error::`scalar deleting destructor'
PUBLIC	??0length_error@std@@QAE@ABV01@@Z		; std::length_error::length_error
PUBLIC	?_Xlen@?$deque@VErrorInfo@Reader@Json@@V?$allocator@VErrorInfo@Reader@Json@@@std@@@std@@KAXXZ ; std::deque<Json::Reader::ErrorInfo,std::allocator<Json::Reader::ErrorInfo> >::_Xlen
PUBLIC	??$_Uninit_copy@PAPAVErrorInfo@Reader@Json@@PAPAV123@V?$allocator@PAVErrorInfo@Reader@Json@@@std@@@std@@YAPAPAVErrorInfo@Reader@Json@@PAPAV123@00AAV?$allocator@PAVErrorInfo@Reader@Json@@@0@U_Scalar_ptr_iterator_tag@0@U_Range_checked_iterator_tag@0@@Z ; std::_Uninit_copy<Json::Reader::ErrorInfo * *,Json::Reader::ErrorInfo * *,std::allocator<Json::Reader::ErrorInfo *> >
PUBLIC	??$unchecked_uninitialized_copy@PAPAVErrorInfo@Reader@Json@@PAPAV123@V?$allocator@PAVErrorInfo@Reader@Json@@@std@@@stdext@@YAPAPAVErrorInfo@Reader@Json@@PAPAV123@00AAV?$allocator@PAVErrorInfo@Reader@Json@@@std@@@Z ; stdext::unchecked_uninitialized_copy<Json::Reader::ErrorInfo * *,Json::Reader::ErrorInfo * *,std::allocator<Json::Reader::ErrorInfo *> >
PUBLIC	??$_Iter_cat@PAPAVErrorInfo@Reader@Json@@@std@@YA?AUrandom_access_iterator_tag@0@ABQAPAVErrorInfo@Reader@Json@@@Z ; std::_Iter_cat<Json::Reader::ErrorInfo * *>
PUBLIC	??$_Checked_base@PAPAVErrorInfo@Reader@Json@@@std@@YAPAPAVErrorInfo@Reader@Json@@AAPAPAV123@U_Unchanged_checked_iterator_base_type_tag@0@@Z ; std::_Checked_base<Json::Reader::ErrorInfo * *>
PUBLIC	??$_Checked_base@PAPAVErrorInfo@Reader@Json@@@std@@YAPAPAVErrorInfo@Reader@Json@@AAPAPAV123@@Z ; std::_Checked_base<Json::Reader::ErrorInfo * *>
PUBLIC	??$_Fill_n@PAPAVErrorInfo@Reader@Json@@IPAV123@@std@@YAXPAPAVErrorInfo@Reader@Json@@IABQAV123@U_Range_checked_iterator_tag@0@@Z ; std::_Fill_n<Json::Reader::ErrorInfo * *,unsigned int,Json::Reader::ErrorInfo *>
PUBLIC	??$_Fill_n@PAPAVErrorInfo@Reader@Json@@IPAV123@@std@@YAXPAPAVErrorInfo@Reader@Json@@IABQAV123@Urandom_access_iterator_tag@0@U_Range_checked_iterator_tag@0@@Z ; std::_Fill_n<Json::Reader::ErrorInfo * *,unsigned int,Json::Reader::ErrorInfo *>
PUBLIC	??$unchecked_fill_n@PAPAVErrorInfo@Reader@Json@@IPAV123@@stdext@@YAXPAPAVErrorInfo@Reader@Json@@IABQAV123@@Z ; stdext::unchecked_fill_n<Json::Reader::ErrorInfo * *,unsigned int,Json::Reader::ErrorInfo *>
PUBLIC	??$_Uninit_fill_n@PAPAVErrorInfo@Reader@Json@@IPAV123@V?$allocator@PAVErrorInfo@Reader@Json@@@std@@@std@@YAXPAPAVErrorInfo@Reader@Json@@IABQAV123@AAV?$allocator@PAVErrorInfo@Reader@Json@@@0@U_Scalar_ptr_iterator_tag@0@U_Range_checked_iterator_tag@0@@Z ; std::_Uninit_fill_n<Json::Reader::ErrorInfo * *,unsigned int,Json::Reader::ErrorInfo *,std::allocator<Json::Reader::ErrorInfo *> >
PUBLIC	??$unchecked_uninitialized_fill_n@PAPAVErrorInfo@Reader@Json@@IPAV123@V?$allocator@PAVErrorInfo@Reader@Json@@@std@@@stdext@@YAXPAPAVErrorInfo@Reader@Json@@IABQAV123@AAV?$allocator@PAVErrorInfo@Reader@Json@@@std@@@Z ; stdext::unchecked_uninitialized_fill_n<Json::Reader::ErrorInfo * *,unsigned int,Json::Reader::ErrorInfo *,std::allocator<Json::Reader::ErrorInfo *> >
PUBLIC	??$_Ptr_cat@PAPAVErrorInfo@Reader@Json@@PAPAV123@@std@@YA?AU_Scalar_ptr_iterator_tag@0@AAPAPAVErrorInfo@Reader@Json@@0@Z ; std::_Ptr_cat<Json::Reader::ErrorInfo * *,Json::Reader::ErrorInfo * *>
PUBLIC	??$_Destroy_range@V?$allocator@PAVErrorInfo@Reader@Json@@@std@@@std@@YAXPAPAVErrorInfo@Reader@Json@@0AAV?$allocator@PAVErrorInfo@Reader@Json@@@0@U_Scalar_ptr_iterator_tag@0@@Z ; std::_Destroy_range<std::allocator<Json::Reader::ErrorInfo *> >
PUBLIC	??$_Destroy_range@V?$allocator@PAVErrorInfo@Reader@Json@@@std@@@std@@YAXPAPAVErrorInfo@Reader@Json@@0AAV?$allocator@PAVErrorInfo@Reader@Json@@@0@@Z ; std::_Destroy_range<std::allocator<Json::Reader::ErrorInfo *> >
PUBLIC	?_Growmap@?$deque@VErrorInfo@Reader@Json@@V?$allocator@VErrorInfo@Reader@Json@@@std@@@std@@IAEXI@Z ; std::deque<Json::Reader::ErrorInfo,std::allocator<Json::Reader::ErrorInfo> >::_Growmap
PUBLIC	?push_back@?$deque@VErrorInfo@Reader@Json@@V?$allocator@VErrorInfo@Reader@Json@@@std@@@std@@QAEXABVErrorInfo@Reader@Json@@@Z ; std::deque<Json::Reader::ErrorInfo,std::allocator<Json::Reader::ErrorInfo> >::push_back
PUBLIC	??1ErrorInfo@Reader@Json@@QAE@XZ		; Json::Reader::ErrorInfo::~ErrorInfo
PUBLIC	??_GErrorInfo@Reader@Json@@QAEPAXI@Z		; Json::Reader::ErrorInfo::`scalar deleting destructor'
PUBLIC	??$_Destroy@VErrorInfo@Reader@Json@@@std@@YAXPAVErrorInfo@Reader@Json@@@Z ; std::_Destroy<Json::Reader::ErrorInfo>
PUBLIC	?destroy@?$allocator@VErrorInfo@Reader@Json@@@std@@QAEXPAVErrorInfo@Reader@Json@@@Z ; std::allocator<Json::Reader::ErrorInfo>::destroy
PUBLIC	?empty@?$deque@VErrorInfo@Reader@Json@@V?$allocator@VErrorInfo@Reader@Json@@@std@@@std@@QBE_NXZ ; std::deque<Json::Reader::ErrorInfo,std::allocator<Json::Reader::ErrorInfo> >::empty
PUBLIC	?pop_back@?$deque@VErrorInfo@Reader@Json@@V?$allocator@VErrorInfo@Reader@Json@@@std@@@std@@QAEXXZ ; std::deque<Json::Reader::ErrorInfo,std::allocator<Json::Reader::ErrorInfo> >::pop_back
PUBLIC	??G?$_Deque_const_iterator@VErrorInfo@Reader@Json@@V?$allocator@VErrorInfo@Reader@Json@@@std@@$00@std@@QBEHABV01@@Z ; std::_Deque_const_iterator<Json::Reader::ErrorInfo,std::allocator<Json::Reader::ErrorInfo>,1>::operator-
PUBLIC	??0?$_Deque_const_iterator@VErrorInfo@Reader@Json@@V?$allocator@VErrorInfo@Reader@Json@@@std@@$00@std@@QAE@XZ ; std::_Deque_const_iterator<Json::Reader::ErrorInfo,std::allocator<Json::Reader::ErrorInfo>,1>::_Deque_const_iterator<Json::Reader::ErrorInfo,std::allocator<Json::Reader::ErrorInfo>,1>
PUBLIC	??0?$_Deque_iterator@VErrorInfo@Reader@Json@@V?$allocator@VErrorInfo@Reader@Json@@@std@@$00@std@@QAE@XZ ; std::_Deque_iterator<Json::Reader::ErrorInfo,std::allocator<Json::Reader::ErrorInfo>,1>::_Deque_iterator<Json::Reader::ErrorInfo,std::allocator<Json::Reader::ErrorInfo>,1>
PUBLIC	??D?$_Deque_iterator@VErrorInfo@Reader@Json@@V?$allocator@VErrorInfo@Reader@Json@@@std@@$00@std@@QBEAAVErrorInfo@Reader@Json@@XZ ; std::_Deque_iterator<Json::Reader::ErrorInfo,std::allocator<Json::Reader::ErrorInfo>,1>::operator*
PUBLIC	??A?$_Deque_iterator@VErrorInfo@Reader@Json@@V?$allocator@VErrorInfo@Reader@Json@@@std@@$00@std@@QBEAAVErrorInfo@Reader@Json@@H@Z ; std::_Deque_iterator<Json::Reader::ErrorInfo,std::allocator<Json::Reader::ErrorInfo>,1>::operator[]
PUBLIC	??Z?$_Deque_iterator@VErrorInfo@Reader@Json@@V?$allocator@VErrorInfo@Reader@Json@@@std@@$00@std@@QAEAAV01@H@Z ; std::_Deque_iterator<Json::Reader::ErrorInfo,std::allocator<Json::Reader::ErrorInfo>,1>::operator-=
PUBLIC	??G?$_Deque_iterator@VErrorInfo@Reader@Json@@V?$allocator@VErrorInfo@Reader@Json@@@std@@$00@std@@QBE?AV01@H@Z ; std::_Deque_iterator<Json::Reader::ErrorInfo,std::allocator<Json::Reader::ErrorInfo>,1>::operator-
PUBLIC	??F?$_Deque_const_iterator@VErrorInfo@Reader@Json@@V?$allocator@VErrorInfo@Reader@Json@@@std@@$0A@@std@@QAEAAV01@XZ ; std::_Deque_const_iterator<Json::Reader::ErrorInfo,std::allocator<Json::Reader::ErrorInfo>,0>::operator--
PUBLIC	??F?$_Deque_iterator@VErrorInfo@Reader@Json@@V?$allocator@VErrorInfo@Reader@Json@@@std@@$0A@@std@@QAEAAV01@XZ ; std::_Deque_iterator<Json::Reader::ErrorInfo,std::allocator<Json::Reader::ErrorInfo>,0>::operator--
PUBLIC	??$_Copy_backward_opt@V?$_Deque_iterator@VErrorInfo@Reader@Json@@V?$allocator@VErrorInfo@Reader@Json@@@std@@$0A@@std@@V12@Uforward_iterator_tag@2@@std@@YA?AV?$_Deque_iterator@VErrorInfo@Reader@Json@@V?$allocator@VErrorInfo@Reader@Json@@@std@@$0A@@0@V10@00Uforward_iterator_tag@0@U_Nonscalar_ptr_iterator_tag@0@U_Range_checked_iterator_tag@0@@Z ; std::_Copy_backward_opt<std::_Deque_iterator<Json::Reader::ErrorInfo,std::allocator<Json::Reader::ErrorInfo>,0>,std::_Deque_iterator<Json::Reader::ErrorInfo,std::allocator<Json::Reader::ErrorInfo>,0>,std::forward_iterator_tag>
PUBLIC	??$_Copy_backward_opt@V?$_Deque_iterator@VErrorInfo@Reader@Json@@V?$allocator@VErrorInfo@Reader@Json@@@std@@$0A@@std@@V?$_Deque_iterator@VErrorInfo@Reader@Json@@V?$allocator@VErrorInfo@Reader@Json@@@std@@$00@2@@std@@YA?AV?$_Deque_iterator@VErrorInfo@Reader@Json@@V?$allocator@VErrorInfo@Reader@Json@@@std@@$00@0@V?$_Deque_iterator@VErrorInfo@Reader@Json@@V?$allocator@VErrorInfo@Reader@Json@@@std@@$0A@@0@0V10@Urandom_access_iterator_tag@0@U_Nonscalar_ptr_iterator_tag@0@U_Range_checked_iterator_tag@0@@Z ; std::_Copy_backward_opt<std::_Deque_iterator<Json::Reader::ErrorInfo,std::allocator<Json::Reader::ErrorInfo>,0>,std::_Deque_iterator<Json::Reader::ErrorInfo,std::allocator<Json::Reader::ErrorInfo>,1> >
PUBLIC	??$copy_backward@V?$_Deque_iterator@VErrorInfo@Reader@Json@@V?$allocator@VErrorInfo@Reader@Json@@@std@@$00@std@@V12@@std@@YA?AV?$_Deque_iterator@VErrorInfo@Reader@Json@@V?$allocator@VErrorInfo@Reader@Json@@@std@@$00@0@V10@00@Z ; std::copy_backward<std::_Deque_iterator<Json::Reader::ErrorInfo,std::allocator<Json::Reader::ErrorInfo>,1>,std::_Deque_iterator<Json::Reader::ErrorInfo,std::allocator<Json::Reader::ErrorInfo>,1> >
PUBLIC	??$_Iter_random@V?$_Deque_iterator@VErrorInfo@Reader@Json@@V?$allocator@VErrorInfo@Reader@Json@@@std@@$00@std@@V12@@std@@YA?AUrandom_access_iterator_tag@0@ABV?$_Deque_iterator@VErrorInfo@Reader@Json@@V?$allocator@VErrorInfo@Reader@Json@@@std@@$00@0@0@Z ; std::_Iter_random<std::_Deque_iterator<Json::Reader::ErrorInfo,std::allocator<Json::Reader::ErrorInfo>,1>,std::_Deque_iterator<Json::Reader::ErrorInfo,std::allocator<Json::Reader::ErrorInfo>,1> >
PUBLIC	??$_Ptr_cat@V?$_Deque_iterator@VErrorInfo@Reader@Json@@V?$allocator@VErrorInfo@Reader@Json@@@std@@$00@std@@V12@@std@@YA?AU_Nonscalar_ptr_iterator_tag@0@AAV?$_Deque_iterator@VErrorInfo@Reader@Json@@V?$allocator@VErrorInfo@Reader@Json@@@std@@$00@0@0@Z ; std::_Ptr_cat<std::_Deque_iterator<Json::Reader::ErrorInfo,std::allocator<Json::Reader::ErrorInfo>,1>,std::_Deque_iterator<Json::Reader::ErrorInfo,std::allocator<Json::Reader::ErrorInfo>,1> >
PUBLIC	??G?$_Deque_const_iterator@VErrorInfo@Reader@Json@@V?$allocator@VErrorInfo@Reader@Json@@@std@@$0A@@std@@QBEHABV01@@Z ; std::_Deque_const_iterator<Json::Reader::ErrorInfo,std::allocator<Json::Reader::ErrorInfo>,0>::operator-
PUBLIC	??G?$_Deque_iterator@VErrorInfo@Reader@Json@@V?$allocator@VErrorInfo@Reader@Json@@@std@@$0A@@std@@QBEHABV?$_Deque_const_iterator@VErrorInfo@Reader@Json@@V?$allocator@VErrorInfo@Reader@Json@@@std@@$0A@@1@@Z ; std::_Deque_iterator<Json::Reader::ErrorInfo,std::allocator<Json::Reader::ErrorInfo>,0>::operator-
PUBLIC	??$_Copy_opt@V?$_Deque_iterator@VErrorInfo@Reader@Json@@V?$allocator@VErrorInfo@Reader@Json@@@std@@$0A@@std@@V12@Uforward_iterator_tag@2@@std@@YA?AV?$_Deque_iterator@VErrorInfo@Reader@Json@@V?$allocator@VErrorInfo@Reader@Json@@@std@@$0A@@0@V10@00Uforward_iterator_tag@0@U_Nonscalar_ptr_iterator_tag@0@U_Range_checked_iterator_tag@0@@Z ; std::_Copy_opt<std::_Deque_iterator<Json::Reader::ErrorInfo,std::allocator<Json::Reader::ErrorInfo>,0>,std::_Deque_iterator<Json::Reader::ErrorInfo,std::allocator<Json::Reader::ErrorInfo>,0>,std::forward_iterator_tag>
PUBLIC	??$_Copy_opt@V?$_Deque_iterator@VErrorInfo@Reader@Json@@V?$allocator@VErrorInfo@Reader@Json@@@std@@$0A@@std@@V?$_Deque_iterator@VErrorInfo@Reader@Json@@V?$allocator@VErrorInfo@Reader@Json@@@std@@$00@2@@std@@YA?AV?$_Deque_iterator@VErrorInfo@Reader@Json@@V?$allocator@VErrorInfo@Reader@Json@@@std@@$00@0@V?$_Deque_iterator@VErrorInfo@Reader@Json@@V?$allocator@VErrorInfo@Reader@Json@@@std@@$0A@@0@0V10@Urandom_access_iterator_tag@0@U_Nonscalar_ptr_iterator_tag@0@U_Range_checked_iterator_tag@0@@Z ; std::_Copy_opt<std::_Deque_iterator<Json::Reader::ErrorInfo,std::allocator<Json::Reader::ErrorInfo>,0>,std::_Deque_iterator<Json::Reader::ErrorInfo,std::allocator<Json::Reader::ErrorInfo>,1> >
PUBLIC	??$copy@V?$_Deque_iterator@VErrorInfo@Reader@Json@@V?$allocator@VErrorInfo@Reader@Json@@@std@@$00@std@@V12@@std@@YA?AV?$_Deque_iterator@VErrorInfo@Reader@Json@@V?$allocator@VErrorInfo@Reader@Json@@@std@@$00@0@V10@00@Z ; std::copy<std::_Deque_iterator<Json::Reader::ErrorInfo,std::allocator<Json::Reader::ErrorInfo>,1>,std::_Deque_iterator<Json::Reader::ErrorInfo,std::allocator<Json::Reader::ErrorInfo>,1> >
PUBLIC	??0?$_Deque_const_iterator@VErrorInfo@Reader@Json@@V?$allocator@VErrorInfo@Reader@Json@@@std@@$0A@@std@@QAE@IPBV_Container_base_aux@1@@Z ; std::_Deque_const_iterator<Json::Reader::ErrorInfo,std::allocator<Json::Reader::ErrorInfo>,0>::_Deque_const_iterator<Json::Reader::ErrorInfo,std::allocator<Json::Reader::ErrorInfo>,0>
PUBLIC	??0?$_Deque_iterator@VErrorInfo@Reader@Json@@V?$allocator@VErrorInfo@Reader@Json@@@std@@$0A@@std@@QAE@IPBV_Container_base_aux@1@@Z ; std::_Deque_iterator<Json::Reader::ErrorInfo,std::allocator<Json::Reader::ErrorInfo>,0>::_Deque_iterator<Json::Reader::ErrorInfo,std::allocator<Json::Reader::ErrorInfo>,0>
PUBLIC	?_Checked_iterator_base@?$_Deque_iterator@VErrorInfo@Reader@Json@@V?$allocator@VErrorInfo@Reader@Json@@@std@@$00@std@@QBE?AV?$_Deque_iterator@VErrorInfo@Reader@Json@@V?$allocator@VErrorInfo@Reader@Json@@@std@@$0A@@2@XZ ; std::_Deque_iterator<Json::Reader::ErrorInfo,std::allocator<Json::Reader::ErrorInfo>,1>::_Checked_iterator_base
PUBLIC	??$_Checked_base@V?$_Deque_iterator@VErrorInfo@Reader@Json@@V?$allocator@VErrorInfo@Reader@Json@@@std@@$00@std@@U_Different_checked_iterator_base_type_tag@2@@std@@YA?AV?$_Deque_iterator@VErrorInfo@Reader@Json@@V?$allocator@VErrorInfo@Reader@Json@@@std@@$0A@@0@AAV?$_Deque_iterator@VErrorInfo@Reader@Json@@V?$allocator@VErrorInfo@Reader@Json@@@std@@$00@0@U_Different_checked_iterator_base_type_tag@0@@Z ; std::_Checked_base<std::_Deque_iterator<Json::Reader::ErrorInfo,std::allocator<Json::Reader::ErrorInfo>,1>,std::_Different_checked_iterator_base_type_tag>
PUBLIC	??$_Checked_base@V?$_Deque_iterator@VErrorInfo@Reader@Json@@V?$allocator@VErrorInfo@Reader@Json@@@std@@$00@std@@@std@@YA?AV?$_Deque_iterator@VErrorInfo@Reader@Json@@V?$allocator@VErrorInfo@Reader@Json@@@std@@$0A@@0@AAV?$_Deque_iterator@VErrorInfo@Reader@Json@@V?$allocator@VErrorInfo@Reader@Json@@@std@@$00@0@@Z ; std::_Checked_base<std::_Deque_iterator<Json::Reader::ErrorInfo,std::allocator<Json::Reader::ErrorInfo>,1> >
PUBLIC	??4ErrorInfo@Reader@Json@@QAEAAV012@ABV012@@Z	; Json::Reader::ErrorInfo::operator=
PUBLIC	??8?$_Deque_const_iterator@VErrorInfo@Reader@Json@@V?$allocator@VErrorInfo@Reader@Json@@@std@@$0A@@std@@QBE_NABV01@@Z ; std::_Deque_const_iterator<Json::Reader::ErrorInfo,std::allocator<Json::Reader::ErrorInfo>,0>::operator==
PUBLIC	??9?$_Deque_const_iterator@VErrorInfo@Reader@Json@@V?$allocator@VErrorInfo@Reader@Json@@@std@@$0A@@std@@QBE_NABV01@@Z ; std::_Deque_const_iterator<Json::Reader::ErrorInfo,std::allocator<Json::Reader::ErrorInfo>,0>::operator!=
PUBLIC	??D?$_Deque_const_iterator@VErrorInfo@Reader@Json@@V?$allocator@VErrorInfo@Reader@Json@@@std@@$0A@@std@@QBEABVErrorInfo@Reader@Json@@XZ ; std::_Deque_const_iterator<Json::Reader::ErrorInfo,std::allocator<Json::Reader::ErrorInfo>,0>::operator*
PUBLIC	??D?$_Deque_iterator@VErrorInfo@Reader@Json@@V?$allocator@VErrorInfo@Reader@Json@@@std@@$0A@@std@@QBEAAVErrorInfo@Reader@Json@@XZ ; std::_Deque_iterator<Json::Reader::ErrorInfo,std::allocator<Json::Reader::ErrorInfo>,0>::operator*
PUBLIC	??E?$_Deque_const_iterator@VErrorInfo@Reader@Json@@V?$allocator@VErrorInfo@Reader@Json@@@std@@$0A@@std@@QAEAAV01@XZ ; std::_Deque_const_iterator<Json::Reader::ErrorInfo,std::allocator<Json::Reader::ErrorInfo>,0>::operator++
PUBLIC	??E?$_Deque_iterator@VErrorInfo@Reader@Json@@V?$allocator@VErrorInfo@Reader@Json@@@std@@$0A@@std@@QAEAAV01@XZ ; std::_Deque_iterator<Json::Reader::ErrorInfo,std::allocator<Json::Reader::ErrorInfo>,0>::operator++
PUBLIC	??$_Fill@V?$_Deque_iterator@VErrorInfo@Reader@Json@@V?$allocator@VErrorInfo@Reader@Json@@@std@@$0A@@std@@VErrorInfo@Reader@Json@@@std@@YAXV?$_Deque_iterator@VErrorInfo@Reader@Json@@V?$allocator@VErrorInfo@Reader@Json@@@std@@$0A@@0@0ABVErrorInfo@Reader@Json@@@Z ; std::_Fill<std::_Deque_iterator<Json::Reader::ErrorInfo,std::allocator<Json::Reader::ErrorInfo>,0>,Json::Reader::ErrorInfo>
PUBLIC	??$fill@V?$_Deque_iterator@VErrorInfo@Reader@Json@@V?$allocator@VErrorInfo@Reader@Json@@@std@@$00@std@@VErrorInfo@Reader@Json@@@std@@YAXV?$_Deque_iterator@VErrorInfo@Reader@Json@@V?$allocator@VErrorInfo@Reader@Json@@@std@@$00@0@0ABVErrorInfo@Reader@Json@@@Z ; std::fill<std::_Deque_iterator<Json::Reader::ErrorInfo,std::allocator<Json::Reader::ErrorInfo>,1>,Json::Reader::ErrorInfo>
PUBLIC	?_Insert_n@?$deque@VErrorInfo@Reader@Json@@V?$allocator@VErrorInfo@Reader@Json@@@std@@@std@@IAEXV?$_Deque_const_iterator@VErrorInfo@Reader@Json@@V?$allocator@VErrorInfo@Reader@Json@@@std@@$00@2@IABVErrorInfo@Reader@Json@@@Z ; std::deque<Json::Reader::ErrorInfo,std::allocator<Json::Reader::ErrorInfo> >::_Insert_n
PUBLIC	??Y?$_Deque_const_iterator@VErrorInfo@Reader@Json@@V?$allocator@VErrorInfo@Reader@Json@@@std@@$00@std@@QAEAAV01@H@Z ; std::_Deque_const_iterator<Json::Reader::ErrorInfo,std::allocator<Json::Reader::ErrorInfo>,1>::operator+=
PUBLIC	??Y?$_Deque_iterator@VErrorInfo@Reader@Json@@V?$allocator@VErrorInfo@Reader@Json@@@std@@$00@std@@QAEAAV01@H@Z ; std::_Deque_iterator<Json::Reader::ErrorInfo,std::allocator<Json::Reader::ErrorInfo>,1>::operator+=
PUBLIC	??H?$_Deque_iterator@VErrorInfo@Reader@Json@@V?$allocator@VErrorInfo@Reader@Json@@@std@@$00@std@@QBE?AV01@H@Z ; std::_Deque_iterator<Json::Reader::ErrorInfo,std::allocator<Json::Reader::ErrorInfo>,1>::operator+
PUBLIC	?resize@?$deque@VErrorInfo@Reader@Json@@V?$allocator@VErrorInfo@Reader@Json@@@std@@@std@@QAEXIVErrorInfo@Reader@Json@@@Z ; std::deque<Json::Reader::ErrorInfo,std::allocator<Json::Reader::ErrorInfo> >::resize
PUBLIC	?resize@?$deque@VErrorInfo@Reader@Json@@V?$allocator@VErrorInfo@Reader@Json@@@std@@@std@@QAEXI@Z ; std::deque<Json::Reader::ErrorInfo,std::allocator<Json::Reader::ErrorInfo> >::resize
PUBLIC	?size@?$deque@VErrorInfo@Reader@Json@@V?$allocator@VErrorInfo@Reader@Json@@@std@@@std@@QBEIXZ ; std::deque<Json::Reader::ErrorInfo,std::allocator<Json::Reader::ErrorInfo> >::size
PUBLIC	??0?$_Iterator_with_base@Urandom_access_iterator_tag@std@@PAVValue@Json@@HPBQAV34@ABQAV34@V_Iterator_base_aux@2@@std@@QAE@XZ ; std::_Iterator_with_base<std::random_access_iterator_tag,Json::Value *,int,Json::Value * const *,Json::Value * const &,std::_Iterator_base_aux>::_Iterator_with_base<std::random_access_iterator_tag,Json::Value *,int,Json::Value * const *,Json::Value * const &,std::_Iterator_base_aux>
PUBLIC	??0?$_Ranit@PAVValue@Json@@HPBQAV12@ABQAV12@@std@@QAE@XZ ; std::_Ranit<Json::Value *,int,Json::Value * const *,Json::Value * const &>::_Ranit<Json::Value *,int,Json::Value * const *,Json::Value * const &>
PUBLIC	??0?$_Deque_const_iterator@PAVValue@Json@@V?$allocator@PAVValue@Json@@@std@@$00@std@@QAE@IPBV_Container_base_aux@1@@Z ; std::_Deque_const_iterator<Json::Value *,std::allocator<Json::Value *>,1>::_Deque_const_iterator<Json::Value *,std::allocator<Json::Value *>,1>
PUBLIC	??0?$_Deque_iterator@PAVValue@Json@@V?$allocator@PAVValue@Json@@@std@@$00@std@@QAE@IPBV_Container_base_aux@1@@Z ; std::_Deque_iterator<Json::Value *,std::allocator<Json::Value *>,1>::_Deque_iterator<Json::Value *,std::allocator<Json::Value *>,1>
PUBLIC	?end@?$deque@PAVValue@Json@@V?$allocator@PAVValue@Json@@@std@@@std@@QAE?AV?$_Deque_iterator@PAVValue@Json@@V?$allocator@PAVValue@Json@@@std@@$00@2@XZ ; std::deque<Json::Value *,std::allocator<Json::Value *> >::end
PUBLIC	??D?$_Deque_const_iterator@PAVValue@Json@@V?$allocator@PAVValue@Json@@@std@@$00@std@@QBEABQAVValue@Json@@XZ ; std::_Deque_const_iterator<Json::Value *,std::allocator<Json::Value *>,1>::operator*
PUBLIC	??D?$_Deque_iterator@PAVValue@Json@@V?$allocator@PAVValue@Json@@@std@@$00@std@@QBEAAPAVValue@Json@@XZ ; std::_Deque_iterator<Json::Value *,std::allocator<Json::Value *>,1>::operator*
PUBLIC	??Y?$_Deque_const_iterator@PAVValue@Json@@V?$allocator@PAVValue@Json@@@std@@$00@std@@QAEAAV01@H@Z ; std::_Deque_const_iterator<Json::Value *,std::allocator<Json::Value *>,1>::operator+=
PUBLIC	??Y?$_Deque_iterator@PAVValue@Json@@V?$allocator@PAVValue@Json@@@std@@$00@std@@QAEAAV01@H@Z ; std::_Deque_iterator<Json::Value *,std::allocator<Json::Value *>,1>::operator+=
PUBLIC	??Z?$_Deque_iterator@PAVValue@Json@@V?$allocator@PAVValue@Json@@@std@@$00@std@@QAEAAV01@H@Z ; std::_Deque_iterator<Json::Value *,std::allocator<Json::Value *>,1>::operator-=
PUBLIC	??G?$_Deque_iterator@PAVValue@Json@@V?$allocator@PAVValue@Json@@@std@@$00@std@@QBE?AV01@H@Z ; std::_Deque_iterator<Json::Value *,std::allocator<Json::Value *>,1>::operator-
PUBLIC	?back@?$deque@PAVValue@Json@@V?$allocator@PAVValue@Json@@@std@@@std@@QAEAAPAVValue@Json@@XZ ; std::deque<Json::Value *,std::allocator<Json::Value *> >::back
PUBLIC	?top@?$stack@PAVValue@Json@@V?$deque@PAVValue@Json@@V?$allocator@PAVValue@Json@@@std@@@std@@@std@@QAEAAPAVValue@Json@@XZ ; std::stack<Json::Value *,std::deque<Json::Value *,std::allocator<Json::Value *> > >::top
PUBLIC	?begin@?$deque@VErrorInfo@Reader@Json@@V?$allocator@VErrorInfo@Reader@Json@@@std@@@std@@QBE?AV?$_Deque_const_iterator@VErrorInfo@Reader@Json@@V?$allocator@VErrorInfo@Reader@Json@@@std@@$00@2@XZ ; std::deque<Json::Reader::ErrorInfo,std::allocator<Json::Reader::ErrorInfo> >::begin
PUBLIC	?_Set_container@_Iterator_base_aux@std@@QAEXQBV_Container_base_aux@2@@Z ; std::_Iterator_base_aux::_Set_container
PUBLIC	??0_Iterator_base_aux@std@@QAE@XZ		; std::_Iterator_base_aux::_Iterator_base_aux
PUBLIC	??0?$_Iterator_with_base@Urandom_access_iterator_tag@std@@VErrorInfo@Reader@Json@@HPBV345@ABV345@V_Iterator_base_aux@2@@std@@QAE@XZ ; std::_Iterator_with_base<std::random_access_iterator_tag,Json::Reader::ErrorInfo,int,Json::Reader::ErrorInfo const *,Json::Reader::ErrorInfo const &,std::_Iterator_base_aux>::_Iterator_with_base<std::random_access_iterator_tag,Json::Reader::ErrorInfo,int,Json::Reader::ErrorInfo const *,Json::Reader::ErrorInfo const &,std::_Iterator_base_aux>
PUBLIC	??0?$_Ranit@VErrorInfo@Reader@Json@@HPBV123@ABV123@@std@@QAE@XZ ; std::_Ranit<Json::Reader::ErrorInfo,int,Json::Reader::ErrorInfo const *,Json::Reader::ErrorInfo const &>::_Ranit<Json::Reader::ErrorInfo,int,Json::Reader::ErrorInfo const *,Json::Reader::ErrorInfo const &>
PUBLIC	??0?$_Deque_const_iterator@VErrorInfo@Reader@Json@@V?$allocator@VErrorInfo@Reader@Json@@@std@@$00@std@@QAE@IPBV_Container_base_aux@1@@Z ; std::_Deque_const_iterator<Json::Reader::ErrorInfo,std::allocator<Json::Reader::ErrorInfo>,1>::_Deque_const_iterator<Json::Reader::ErrorInfo,std::allocator<Json::Reader::ErrorInfo>,1>
PUBLIC	?end@?$deque@VErrorInfo@Reader@Json@@V?$allocator@VErrorInfo@Reader@Json@@@std@@@std@@QBE?AV?$_Deque_const_iterator@VErrorInfo@Reader@Json@@V?$allocator@VErrorInfo@Reader@Json@@@std@@$00@2@XZ ; std::deque<Json::Reader::ErrorInfo,std::allocator<Json::Reader::ErrorInfo> >::end
PUBLIC	??D?$_Deque_const_iterator@VErrorInfo@Reader@Json@@V?$allocator@VErrorInfo@Reader@Json@@@std@@$00@std@@QBEABVErrorInfo@Reader@Json@@XZ ; std::_Deque_const_iterator<Json::Reader::ErrorInfo,std::allocator<Json::Reader::ErrorInfo>,1>::operator*
PUBLIC	?_Getcont@_Aux_cont@std@@QBEPBV_Container_base_aux@2@XZ ; std::_Aux_cont::_Getcont
PUBLIC	?_Getmycont@_Iterator_base_aux@std@@QBEPBV_Container_base_aux@2@XZ ; std::_Iterator_base_aux::_Getmycont
PUBLIC	??E?$_Deque_const_iterator@VErrorInfo@Reader@Json@@V?$allocator@VErrorInfo@Reader@Json@@@std@@$00@std@@QAEAAV01@XZ ; std::_Deque_const_iterator<Json::Reader::ErrorInfo,std::allocator<Json::Reader::ErrorInfo>,1>::operator++
PUBLIC	?_Same_container@_Iterator_base_aux@std@@QBE_NABV12@@Z ; std::_Iterator_base_aux::_Same_container
PUBLIC	?_Has_container@_Iterator_base_aux@std@@QBE_NXZ	; std::_Iterator_base_aux::_Has_container
PUBLIC	??8?$_Deque_const_iterator@VErrorInfo@Reader@Json@@V?$allocator@VErrorInfo@Reader@Json@@@std@@$00@std@@QBE_NABV01@@Z ; std::_Deque_const_iterator<Json::Reader::ErrorInfo,std::allocator<Json::Reader::ErrorInfo>,1>::operator==
PUBLIC	??9?$_Deque_const_iterator@VErrorInfo@Reader@Json@@V?$allocator@VErrorInfo@Reader@Json@@@std@@$00@std@@QBE_NABV01@@Z ; std::_Deque_const_iterator<Json::Reader::ErrorInfo,std::allocator<Json::Reader::ErrorInfo>,1>::operator!=
PUBLIC	??0runtime_error@std@@QAE@ABV?$basic_string@DU?$char_traits@D@std@@V?$allocator@D@2@@1@@Z ; std::runtime_error::runtime_error
PUBLIC	?what@runtime_error@std@@UBEPBDXZ		; std::runtime_error::what
PUBLIC	??1runtime_error@std@@UAE@XZ			; std::runtime_error::~runtime_error
PUBLIC	??_Gruntime_error@std@@UAEPAXI@Z		; std::runtime_error::`scalar deleting destructor'
PUBLIC	??0runtime_error@std@@QAE@ABV01@@Z		; std::runtime_error::runtime_error
PUBLIC	??_R0?AVruntime_error@std@@@8			; std::runtime_error `RTTI Type Descriptor'
PUBLIC	??_R0?AVexception@std@@@8			; std::exception `RTTI Type Descriptor'
PUBLIC	__CT??_R0?AVruntime_error@std@@@8??0runtime_error@std@@QAE@ABV01@@Z40
PUBLIC	__CT??_R0?AVexception@std@@@8??0exception@std@@QAE@ABV01@@Z12
PUBLIC	__CTA2?AVruntime_error@std@@
PUBLIC	__TI2?AVruntime_error@std@@
PUBLIC	??_R0?AVlogic_error@std@@@8			; std::logic_error `RTTI Type Descriptor'
PUBLIC	__CT??_R0?AVlogic_error@std@@@8??0logic_error@std@@QAE@ABV01@@Z40
PUBLIC	??_C@_00CNPNBAHC@?$AA@				; `string'
PUBLIC	??_C@_0EC@HCHNIDLM@A?5valid?5JSON?5document?5must?5be?5ei@ ; `string'
PUBLIC	??_C@_0CP@GDDNKEK@Syntax?5error?3?5value?0?5object?5or?5a@ ; `string'
PUBLIC	??_C@_03FFDNHNKN@rue?$AA@			; `string'
PUBLIC	??_C@_04KCECFHEP@alse?$AA@			; `string'
PUBLIC	??_C@_03KNPGGKC@ull?$AA@			; `string'
PUBLIC	??_C@_01EEMJAFIK@?6?$AA@			; `string'
PUBLIC	??_C@_0CF@GCCDMCPH@Missing?5?8?3?8?5after?5object?5member?5@ ; `string'
PUBLIC	??_C@_0CJ@NGKOAFKA@Missing?5?8?0?8?5or?5?8?$HN?8?5in?5object?5dec@ ; `string'
PUBLIC	??_C@_0CC@JNCGHFHN@Missing?5?8?$HN?8?5or?5object?5member?5nam@ ; `string'
PUBLIC	??_C@_0CI@DPCANLPO@Missing?5?8?0?8?5or?5?8?$FN?8?5in?5array?5decl@ ; `string'
PUBLIC	??_C@_0BD@HHNBFDKF@?8?5is?5not?5a?5number?4?$AA@ ; `string'
PUBLIC	??_C@_01GEODFPGF@?8?$AA@			; `string'
PUBLIC	??_C@_0BN@MIBOPDFC@Unable?5to?5parse?5token?5length?$AA@ ; `string'
PUBLIC	??_C@_03DLDNIBIK@?$CFlf?$AA@			; `string'
PUBLIC	??_C@_0CA@DPGKPPOE@Empty?5escape?5sequence?5in?5string?$AA@ ; `string'
PUBLIC	??_C@_0EE@LMPEHADE@additional?5six?5characters?5expect@ ; `string'
PUBLIC	??_C@_0FA@BGMMPLKB@expecting?5another?5?2u?5token?5to?5be@ ; `string'
PUBLIC	??_C@_0DN@BPAHJPFJ@Bad?5unicode?5escape?5sequence?5in?5s@ ; `string'
PUBLIC	??_C@_0ED@FIDDECIG@Bad?5unicode?5escape?5sequence?5in?5s@ ; `string'
PUBLIC	??_C@_0BD@LAMGIMLG@Line?5?$CFd?0?5Column?5?$CFd?$AA@ ; `string'
PUBLIC	??_C@_02KAOAMBHJ@?$CK?5?$AA@			; `string'
PUBLIC	??_C@_02KNHHEEKP@?5?5?$AA@			; `string'
PUBLIC	??_C@_0O@JBAGGIKP@?5for?5detail?4?6?$AA@	; `string'
PUBLIC	??_C@_04JBAOJHKB@See?5?$AA@			; `string'
PUBLIC	??_C@_0BG@PKNPKJIB@Error?5from?5reader?3?5?$CFs?$AA@ ; `string'
PUBLIC	??_C@_0N@KACHDPPK@reader?5error?$AA@		; `string'
PUBLIC	??_C@_0BD@OLBABOEK@vector?$DMT?$DO?5too?5long?$AA@ ; `string'
PUBLIC	??_R0?AVlength_error@std@@@8			; std::length_error `RTTI Type Descriptor'
PUBLIC	__CT??_R0?AVlength_error@std@@@8??0length_error@std@@QAE@ABV01@@Z40
PUBLIC	__CTA3?AVlength_error@std@@
PUBLIC	__TI3?AVlength_error@std@@
PUBLIC	??_C@_0BC@KBDMBKEH@deque?$DMT?$DO?5too?5long?$AA@ ; `string'
PUBLIC	??_R0?AVbad_alloc@std@@@8			; std::bad_alloc `RTTI Type Descriptor'
PUBLIC	__CT??_R0?AVbad_alloc@std@@@8??0bad_alloc@std@@QAE@ABV01@@Z12
PUBLIC	__CTA2?AVbad_alloc@std@@
PUBLIC	__TI2?AVbad_alloc@std@@
PUBLIC	??_7bad_alloc@std@@6B@				; std::bad_alloc::`vftable'
PUBLIC	??_7logic_error@std@@6B@			; std::logic_error::`vftable'
PUBLIC	??_7length_error@std@@6B@			; std::length_error::`vftable'
PUBLIC	??_7runtime_error@std@@6B@			; std::runtime_error::`vftable'
EXTRN	?what@exception@std@@UBEPBDXZ:PROC		; std::exception::what
EXTRN	??0exception@std@@QAE@ABV01@@Z:PROC		; std::exception::exception
EXTRN	@__security_check_cookie@4:PROC
EXTRN	__imp_?length@?$basic_string@DU?$char_traits@D@std@@V?$allocator@D@2@@std@@QBEIXZ:PROC
EXTRN	__imp_??$getline@DU?$char_traits@D@std@@V?$allocator@D@2@@std@@YAAAV?$basic_istream@DU?$char_traits@D@std@@@0@AAV10@AAV?$basic_string@DU?$char_traits@D@std@@V?$allocator@D@2@@0@D@Z:PROC
EXTRN	__imp_??Y?$basic_string@DU?$char_traits@D@std@@V?$allocator@D@2@@std@@QAEAAV01@PBD@Z:PROC
EXTRN	__imp_??4?$basic_string@DU?$char_traits@D@std@@V?$allocator@D@2@@std@@QAEAAV01@PBD@Z:PROC
EXTRN	__imp_?empty@?$basic_string@DU?$char_traits@D@std@@V?$allocator@D@2@@std@@QBE_NXZ:PROC
EXTRN	__imp__sscanf:PROC
EXTRN	__imp_??0?$basic_string@DU?$char_traits@D@std@@V?$allocator@D@2@@std@@QAE@PBD0@Z:PROC
EXTRN	__imp_??Y?$basic_string@DU?$char_traits@D@std@@V?$allocator@D@2@@std@@QAEAAV01@D@Z:PROC
EXTRN	__imp_?reserve@?$basic_string@DU?$char_traits@D@std@@V?$allocator@D@2@@std@@QAEXI@Z:PROC
EXTRN	__imp_??A?$basic_string@DU?$char_traits@D@std@@V?$allocator@D@2@@std@@QAEAADI@Z:PROC
EXTRN	__imp_?resize@?$basic_string@DU?$char_traits@D@std@@V?$allocator@D@2@@std@@QAEXI@Z:PROC
EXTRN	??2@YAPAXI@Z:PROC				; operator new
EXTRN	__imp_??0exception@std@@QAE@ABQBD@Z:PROC
EXTRN	__imp_?what@exception@std@@UBEPBDXZ:PROC
EXTRN	??_Ebad_alloc@std@@UAEPAXI@Z:PROC		; std::bad_alloc::`vector deleting destructor'
EXTRN	??_Elogic_error@std@@UAEPAXI@Z:PROC		; std::logic_error::`vector deleting destructor'
EXTRN	??_Elength_error@std@@UAEPAXI@Z:PROC		; std::length_error::`vector deleting destructor'
EXTRN	__imp__memmove_s:PROC
EXTRN	__imp_??4?$basic_string@DU?$char_traits@D@std@@V?$allocator@D@2@@std@@QAEAAV01@ABV01@@Z:PROC
EXTRN	__imp__sprintf_s:PROC
EXTRN	__imp_??0?$basic_string@DU?$char_traits@D@std@@V?$allocator@D@2@@std@@QAE@XZ:PROC
EXTRN	__imp_??Y?$basic_string@DU?$char_traits@D@std@@V?$allocator@D@2@@std@@QAEAAV01@ABV01@@Z:PROC
EXTRN	__imp_??$?HDU?$char_traits@D@std@@V?$allocator@D@1@@std@@YA?AV?$basic_string@DU?$char_traits@D@std@@V?$allocator@D@2@@0@PBDABV10@@Z:PROC
EXTRN	__imp_??$?HDU?$char_traits@D@std@@V?$allocator@D@1@@std@@YA?AV?$basic_string@DU?$char_traits@D@std@@V?$allocator@D@2@@0@ABV10@PBD@Z:PROC
EXTRN	__imp___invalid_parameter_noinfo:PROC
EXTRN	__imp____iob_func:PROC
EXTRN	__imp__fprintf:PROC
EXTRN	__imp_??0?$basic_string@DU?$char_traits@D@std@@V?$allocator@D@2@@std@@QAE@PBD@Z:PROC
EXTRN	__imp_??0exception@std@@QAE@XZ:PROC
EXTRN	__imp_??0?$basic_string@DU?$char_traits@D@std@@V?$allocator@D@2@@std@@QAE@ABV01@@Z:PROC
EXTRN	__imp_?c_str@?$basic_string@DU?$char_traits@D@std@@V?$allocator@D@2@@std@@QBEPBDXZ:PROC
EXTRN	??3@YAXPAX@Z:PROC				; operator delete
EXTRN	__imp_??1exception@std@@UAE@XZ:PROC
EXTRN	__imp_??1?$basic_string@DU?$char_traits@D@std@@V?$allocator@D@2@@std@@QAE@XZ:PROC
EXTRN	??_Eruntime_error@std@@UAEPAXI@Z:PROC		; std::runtime_error::`vector deleting destructor'
EXTRN	__imp_??0exception@std@@QAE@ABV01@@Z:PROC
EXTRN	??_7type_info@@6B@:QWORD			; type_info::`vftable'
;	COMDAT ??_7runtime_error@std@@6B@
CONST	SEGMENT
??_7runtime_error@std@@6B@ DD FLAT:??_R4runtime_error@std@@6B@ ; std::runtime_error::`vftable'
	DD	FLAT:??_Eruntime_error@std@@UAEPAXI@Z
	DD	FLAT:?what@runtime_error@std@@UBEPBDXZ
CONST	ENDS
;	COMDAT ??_R4runtime_error@std@@6B@
rdata$r	SEGMENT
??_R4runtime_error@std@@6B@ DD 00H			; std::runtime_error::`RTTI Complete Object Locator'
	DD	00H
	DD	00H
	DD	FLAT:??_R0?AVruntime_error@std@@@8
	DD	FLAT:??_R3runtime_error@std@@8
rdata$r	ENDS
;	COMDAT ??_R3runtime_error@std@@8
rdata$r	SEGMENT
??_R3runtime_error@std@@8 DD 00H			; std::runtime_error::`RTTI Class Hierarchy Descriptor'
	DD	00H
	DD	02H
	DD	FLAT:??_R2runtime_error@std@@8
rdata$r	ENDS
;	COMDAT ??_R2runtime_error@std@@8
rdata$r	SEGMENT
??_R2runtime_error@std@@8 DD FLAT:??_R1A@?0A@EA@runtime_error@std@@8 ; std::runtime_error::`RTTI Base Class Array'
	DD	FLAT:??_R1A@?0A@EA@exception@std@@8
rdata$r	ENDS
;	COMDAT ??_R1A@?0A@EA@runtime_error@std@@8
rdata$r	SEGMENT
??_R1A@?0A@EA@runtime_error@std@@8 DD FLAT:??_R0?AVruntime_error@std@@@8 ; std::runtime_error::`RTTI Base Class Descriptor at (0,-1,0,64)'
	DD	01H
	DD	00H
	DD	0ffffffffH
	DD	00H
	DD	040H
	DD	FLAT:??_R3runtime_error@std@@8
rdata$r	ENDS
;	COMDAT ??_7length_error@std@@6B@
CONST	SEGMENT
??_7length_error@std@@6B@ DD FLAT:??_R4length_error@std@@6B@ ; std::length_error::`vftable'
	DD	FLAT:??_Elength_error@std@@UAEPAXI@Z
	DD	FLAT:?what@logic_error@std@@UBEPBDXZ
CONST	ENDS
;	COMDAT ??_R4length_error@std@@6B@
rdata$r	SEGMENT
??_R4length_error@std@@6B@ DD 00H			; std::length_error::`RTTI Complete Object Locator'
	DD	00H
	DD	00H
	DD	FLAT:??_R0?AVlength_error@std@@@8
	DD	FLAT:??_R3length_error@std@@8
rdata$r	ENDS
;	COMDAT ??_R3length_error@std@@8
rdata$r	SEGMENT
??_R3length_error@std@@8 DD 00H				; std::length_error::`RTTI Class Hierarchy Descriptor'
	DD	00H
	DD	03H
	DD	FLAT:??_R2length_error@std@@8
rdata$r	ENDS
;	COMDAT ??_R2length_error@std@@8
rdata$r	SEGMENT
??_R2length_error@std@@8 DD FLAT:??_R1A@?0A@EA@length_error@std@@8 ; std::length_error::`RTTI Base Class Array'
	DD	FLAT:??_R1A@?0A@EA@logic_error@std@@8
	DD	FLAT:??_R1A@?0A@EA@exception@std@@8
rdata$r	ENDS
;	COMDAT ??_R1A@?0A@EA@length_error@std@@8
rdata$r	SEGMENT
??_R1A@?0A@EA@length_error@std@@8 DD FLAT:??_R0?AVlength_error@std@@@8 ; std::length_error::`RTTI Base Class Descriptor at (0,-1,0,64)'
	DD	02H
	DD	00H
	DD	0ffffffffH
	DD	00H
	DD	040H
	DD	FLAT:??_R3length_error@std@@8
rdata$r	ENDS
;	COMDAT ??_7logic_error@std@@6B@
CONST	SEGMENT
??_7logic_error@std@@6B@ DD FLAT:??_R4logic_error@std@@6B@ ; std::logic_error::`vftable'
	DD	FLAT:??_Elogic_error@std@@UAEPAXI@Z
	DD	FLAT:?what@logic_error@std@@UBEPBDXZ
CONST	ENDS
;	COMDAT ??_R4logic_error@std@@6B@
rdata$r	SEGMENT
??_R4logic_error@std@@6B@ DD 00H			; std::logic_error::`RTTI Complete Object Locator'
	DD	00H
	DD	00H
	DD	FLAT:??_R0?AVlogic_error@std@@@8
	DD	FLAT:??_R3logic_error@std@@8
rdata$r	ENDS
;	COMDAT ??_R3logic_error@std@@8
rdata$r	SEGMENT
??_R3logic_error@std@@8 DD 00H				; std::logic_error::`RTTI Class Hierarchy Descriptor'
	DD	00H
	DD	02H
	DD	FLAT:??_R2logic_error@std@@8
rdata$r	ENDS
;	COMDAT ??_R2logic_error@std@@8
rdata$r	SEGMENT
??_R2logic_error@std@@8 DD FLAT:??_R1A@?0A@EA@logic_error@std@@8 ; std::logic_error::`RTTI Base Class Array'
	DD	FLAT:??_R1A@?0A@EA@exception@std@@8
rdata$r	ENDS
;	COMDAT ??_R1A@?0A@EA@logic_error@std@@8
rdata$r	SEGMENT
??_R1A@?0A@EA@logic_error@std@@8 DD FLAT:??_R0?AVlogic_error@std@@@8 ; std::logic_error::`RTTI Base Class Descriptor at (0,-1,0,64)'
	DD	01H
	DD	00H
	DD	0ffffffffH
	DD	00H
	DD	040H
	DD	FLAT:??_R3logic_error@std@@8
rdata$r	ENDS
;	COMDAT ??_7bad_alloc@std@@6B@
CONST	SEGMENT
??_7bad_alloc@std@@6B@ DD FLAT:??_R4bad_alloc@std@@6B@	; std::bad_alloc::`vftable'
	DD	FLAT:??_Ebad_alloc@std@@UAEPAXI@Z
	DD	FLAT:?what@exception@std@@UBEPBDXZ
CONST	ENDS
;	COMDAT ??_R4bad_alloc@std@@6B@
rdata$r	SEGMENT
??_R4bad_alloc@std@@6B@ DD 00H				; std::bad_alloc::`RTTI Complete Object Locator'
	DD	00H
	DD	00H
	DD	FLAT:??_R0?AVbad_alloc@std@@@8
	DD	FLAT:??_R3bad_alloc@std@@8
rdata$r	ENDS
;	COMDAT ??_R3bad_alloc@std@@8
rdata$r	SEGMENT
??_R3bad_alloc@std@@8 DD 00H				; std::bad_alloc::`RTTI Class Hierarchy Descriptor'
	DD	00H
	DD	02H
	DD	FLAT:??_R2bad_alloc@std@@8
rdata$r	ENDS
;	COMDAT ??_R2bad_alloc@std@@8
rdata$r	SEGMENT
??_R2bad_alloc@std@@8 DD FLAT:??_R1A@?0A@EA@bad_alloc@std@@8 ; std::bad_alloc::`RTTI Base Class Array'
	DD	FLAT:??_R1A@?0A@EA@exception@std@@8
rdata$r	ENDS
;	COMDAT ??_R1A@?0A@EA@exception@std@@8
rdata$r	SEGMENT
??_R1A@?0A@EA@exception@std@@8 DD FLAT:??_R0?AVexception@std@@@8 ; std::exception::`RTTI Base Class Descriptor at (0,-1,0,64)'
	DD	00H
	DD	00H
	DD	0ffffffffH
	DD	00H
	DD	040H
	DD	FLAT:??_R3exception@std@@8
rdata$r	ENDS
;	COMDAT ??_R3exception@std@@8
rdata$r	SEGMENT
??_R3exception@std@@8 DD 00H				; std::exception::`RTTI Class Hierarchy Descriptor'
	DD	00H
	DD	01H
	DD	FLAT:??_R2exception@std@@8
rdata$r	ENDS
;	COMDAT ??_R2exception@std@@8
rdata$r	SEGMENT
??_R2exception@std@@8 DD FLAT:??_R1A@?0A@EA@exception@std@@8 ; std::exception::`RTTI Base Class Array'
rdata$r	ENDS
;	COMDAT ??_R1A@?0A@EA@bad_alloc@std@@8
rdata$r	SEGMENT
??_R1A@?0A@EA@bad_alloc@std@@8 DD FLAT:??_R0?AVbad_alloc@std@@@8 ; std::bad_alloc::`RTTI Base Class Descriptor at (0,-1,0,64)'
	DD	01H
	DD	00H
	DD	0ffffffffH
	DD	00H
	DD	040H
	DD	FLAT:??_R3bad_alloc@std@@8
rdata$r	ENDS
;	COMDAT __TI2?AVbad_alloc@std@@
xdata$x	SEGMENT
__TI2?AVbad_alloc@std@@ DD 00H
	DD	FLAT:??1bad_alloc@std@@UAE@XZ
	DD	00H
	DD	FLAT:__CTA2?AVbad_alloc@std@@
xdata$x	ENDS
;	COMDAT __CTA2?AVbad_alloc@std@@
xdata$x	SEGMENT
__CTA2?AVbad_alloc@std@@ DD 02H
	DD	FLAT:__CT??_R0?AVbad_alloc@std@@@8??0bad_alloc@std@@QAE@ABV01@@Z12
	DD	FLAT:__CT??_R0?AVexception@std@@@8??0exception@std@@QAE@ABV01@@Z12
xdata$x	ENDS
;	COMDAT __CT??_R0?AVbad_alloc@std@@@8??0bad_alloc@std@@QAE@ABV01@@Z12
xdata$x	SEGMENT
__CT??_R0?AVbad_alloc@std@@@8??0bad_alloc@std@@QAE@ABV01@@Z12 DD 00H
	DD	FLAT:??_R0?AVbad_alloc@std@@@8
	DD	00H
	DD	0ffffffffH
	ORG $+4
	DD	0cH
	DD	FLAT:??0bad_alloc@std@@QAE@ABV01@@Z
xdata$x	ENDS
;	COMDAT ??_R0?AVbad_alloc@std@@@8
_DATA	SEGMENT
??_R0?AVbad_alloc@std@@@8 DD FLAT:??_7type_info@@6B@	; std::bad_alloc `RTTI Type Descriptor'
	DD	00H
	DB	'.?AVbad_alloc@std@@', 00H
_DATA	ENDS
;	COMDAT ??_C@_0BC@KBDMBKEH@deque?$DMT?$DO?5too?5long?$AA@
CONST	SEGMENT
??_C@_0BC@KBDMBKEH@deque?$DMT?$DO?5too?5long?$AA@ DB 'deque<T> too long', 00H ; `string'
CONST	ENDS
;	COMDAT __TI3?AVlength_error@std@@
xdata$x	SEGMENT
__TI3?AVlength_error@std@@ DD 00H
	DD	FLAT:??1length_error@std@@UAE@XZ
	DD	00H
	DD	FLAT:__CTA3?AVlength_error@std@@
xdata$x	ENDS
;	COMDAT __CTA3?AVlength_error@std@@
xdata$x	SEGMENT
__CTA3?AVlength_error@std@@ DD 03H
	DD	FLAT:__CT??_R0?AVlength_error@std@@@8??0length_error@std@@QAE@ABV01@@Z40
	DD	FLAT:__CT??_R0?AVlogic_error@std@@@8??0logic_error@std@@QAE@ABV01@@Z40
	DD	FLAT:__CT??_R0?AVexception@std@@@8??0exception@std@@QAE@ABV01@@Z12
xdata$x	ENDS
;	COMDAT __CT??_R0?AVlength_error@std@@@8??0length_error@std@@QAE@ABV01@@Z40
xdata$x	SEGMENT
__CT??_R0?AVlength_error@std@@@8??0length_error@std@@QAE@ABV01@@Z40 DD 00H
	DD	FLAT:??_R0?AVlength_error@std@@@8
	DD	00H
	DD	0ffffffffH
	ORG $+4
	DD	028H
	DD	FLAT:??0length_error@std@@QAE@ABV01@@Z
xdata$x	ENDS
;	COMDAT ??_R0?AVlength_error@std@@@8
_DATA	SEGMENT
??_R0?AVlength_error@std@@@8 DD FLAT:??_7type_info@@6B@	; std::length_error `RTTI Type Descriptor'
	DD	00H
	DB	'.?AVlength_error@std@@', 00H
_DATA	ENDS
;	COMDAT ??_C@_0BD@OLBABOEK@vector?$DMT?$DO?5too?5long?$AA@
CONST	SEGMENT
??_C@_0BD@OLBABOEK@vector?$DMT?$DO?5too?5long?$AA@ DB 'vector<T> too long'
	DB	00H						; `string'
CONST	ENDS
;	COMDAT ??_C@_0N@KACHDPPK@reader?5error?$AA@
CONST	SEGMENT
??_C@_0N@KACHDPPK@reader?5error?$AA@ DB 'reader error', 00H ; `string'
CONST	ENDS
;	COMDAT ??_C@_0BG@PKNPKJIB@Error?5from?5reader?3?5?$CFs?$AA@
CONST	SEGMENT
??_C@_0BG@PKNPKJIB@Error?5from?5reader?3?5?$CFs?$AA@ DB 'Error from reade'
	DB	'r: %s', 00H					; `string'
CONST	ENDS
;	COMDAT ??_C@_04JBAOJHKB@See?5?$AA@
CONST	SEGMENT
??_C@_04JBAOJHKB@See?5?$AA@ DB 'See ', 00H		; `string'
CONST	ENDS
;	COMDAT ??_C@_0O@JBAGGIKP@?5for?5detail?4?6?$AA@
CONST	SEGMENT
??_C@_0O@JBAGGIKP@?5for?5detail?4?6?$AA@ DB ' for detail.', 0aH, 00H ; `string'
CONST	ENDS
;	COMDAT ??_C@_02KNHHEEKP@?5?5?$AA@
CONST	SEGMENT
??_C@_02KNHHEEKP@?5?5?$AA@ DB '  ', 00H			; `string'
CONST	ENDS
;	COMDAT ??_C@_02KAOAMBHJ@?$CK?5?$AA@
CONST	SEGMENT
??_C@_02KAOAMBHJ@?$CK?5?$AA@ DB '* ', 00H		; `string'
CONST	ENDS
;	COMDAT ??_C@_0BD@LAMGIMLG@Line?5?$CFd?0?5Column?5?$CFd?$AA@
CONST	SEGMENT
??_C@_0BD@LAMGIMLG@Line?5?$CFd?0?5Column?5?$CFd?$AA@ DB 'Line %d, Column '
	DB	'%d', 00H					; `string'
CONST	ENDS
;	COMDAT ??_C@_0ED@FIDDECIG@Bad?5unicode?5escape?5sequence?5in?5s@
CONST	SEGMENT
??_C@_0ED@FIDDECIG@Bad?5unicode?5escape?5sequence?5in?5s@ DB 'Bad unicode'
	DB	' escape sequence in string: hexadecimal digit expected.', 00H ; `string'
CONST	ENDS
;	COMDAT ??_C@_0DN@BPAHJPFJ@Bad?5unicode?5escape?5sequence?5in?5s@
CONST	SEGMENT
??_C@_0DN@BPAHJPFJ@Bad?5unicode?5escape?5sequence?5in?5s@ DB 'Bad unicode'
	DB	' escape sequence in string: four digits expected.', 00H ; `string'
CONST	ENDS
;	COMDAT ??_C@_0FA@BGMMPLKB@expecting?5another?5?2u?5token?5to?5be@
CONST	SEGMENT
??_C@_0FA@BGMMPLKB@expecting?5another?5?2u?5token?5to?5be@ DB 'expecting '
	DB	'another \u token to begin the second half of a unicode surrog'
	DB	'ate pair', 00H				; `string'
CONST	ENDS
;	COMDAT ??_C@_0EE@LMPEHADE@additional?5six?5characters?5expect@
CONST	SEGMENT
??_C@_0EE@LMPEHADE@additional?5six?5characters?5expect@ DB 'additional si'
	DB	'x characters expected to parse unicode surrogate pair.', 00H ; `string'
CONST	ENDS
;	COMDAT ??_C@_0CA@DPGKPPOE@Empty?5escape?5sequence?5in?5string?$AA@
CONST	SEGMENT
??_C@_0CA@DPGKPPOE@Empty?5escape?5sequence?5in?5string?$AA@ DB 'Empty esc'
	DB	'ape sequence in string', 00H		; `string'
CONST	ENDS
;	COMDAT ??_C@_03DLDNIBIK@?$CFlf?$AA@
CONST	SEGMENT
??_C@_03DLDNIBIK@?$CFlf?$AA@ DB '%lf', 00H		; `string'
CONST	ENDS
;	COMDAT ??_C@_0BN@MIBOPDFC@Unable?5to?5parse?5token?5length?$AA@
CONST	SEGMENT
??_C@_0BN@MIBOPDFC@Unable?5to?5parse?5token?5length?$AA@ DB 'Unable to pa'
	DB	'rse token length', 00H			; `string'
CONST	ENDS
;	COMDAT ??_C@_01GEODFPGF@?8?$AA@
CONST	SEGMENT
??_C@_01GEODFPGF@?8?$AA@ DB '''', 00H			; `string'
CONST	ENDS
;	COMDAT ??_C@_0BD@HHNBFDKF@?8?5is?5not?5a?5number?4?$AA@
CONST	SEGMENT
??_C@_0BD@HHNBFDKF@?8?5is?5not?5a?5number?4?$AA@ DB ''' is not a number.', 00H ; `string'
CONST	ENDS
;	COMDAT ??_C@_0CI@DPCANLPO@Missing?5?8?0?8?5or?5?8?$FN?8?5in?5array?5decl@
CONST	SEGMENT
??_C@_0CI@DPCANLPO@Missing?5?8?0?8?5or?5?8?$FN?8?5in?5array?5decl@ DB 'Mi'
	DB	'ssing '','' or '']'' in array declaration', 00H ; `string'
CONST	ENDS
;	COMDAT ??_C@_0CC@JNCGHFHN@Missing?5?8?$HN?8?5or?5object?5member?5nam@
CONST	SEGMENT
??_C@_0CC@JNCGHFHN@Missing?5?8?$HN?8?5or?5object?5member?5nam@ DB 'Missin'
	DB	'g ''}'' or object member name', 00H		; `string'
CONST	ENDS
;	COMDAT ??_C@_0CJ@NGKOAFKA@Missing?5?8?0?8?5or?5?8?$HN?8?5in?5object?5dec@
CONST	SEGMENT
??_C@_0CJ@NGKOAFKA@Missing?5?8?0?8?5or?5?8?$HN?8?5in?5object?5dec@ DB 'Mi'
	DB	'ssing '','' or ''}'' in object declaration', 00H ; `string'
CONST	ENDS
;	COMDAT ??_C@_0CF@GCCDMCPH@Missing?5?8?3?8?5after?5object?5member?5@
CONST	SEGMENT
??_C@_0CF@GCCDMCPH@Missing?5?8?3?8?5after?5object?5member?5@ DB 'Missing '
	DB	''':'' after object member name', 00H	; `string'
CONST	ENDS
;	COMDAT ??_C@_01EEMJAFIK@?6?$AA@
CONST	SEGMENT
??_C@_01EEMJAFIK@?6?$AA@ DB 0aH, 00H			; `string'
CONST	ENDS
;	COMDAT ??_C@_03KNPGGKC@ull?$AA@
CONST	SEGMENT
??_C@_03KNPGGKC@ull?$AA@ DB 'ull', 00H			; `string'
CONST	ENDS
;	COMDAT ??_C@_04KCECFHEP@alse?$AA@
CONST	SEGMENT
??_C@_04KCECFHEP@alse?$AA@ DB 'alse', 00H		; `string'
CONST	ENDS
;	COMDAT ??_C@_03FFDNHNKN@rue?$AA@
CONST	SEGMENT
??_C@_03FFDNHNKN@rue?$AA@ DB 'rue', 00H			; `string'
CONST	ENDS
;	COMDAT ??_C@_0CP@GDDNKEK@Syntax?5error?3?5value?0?5object?5or?5a@
CONST	SEGMENT
??_C@_0CP@GDDNKEK@Syntax?5error?3?5value?0?5object?5or?5a@ DB 'Syntax err'
	DB	'or: value, object or array expected.', 00H	; `string'
CONST	ENDS
;	COMDAT ??_C@_0EC@HCHNIDLM@A?5valid?5JSON?5document?5must?5be?5ei@
CONST	SEGMENT
??_C@_0EC@HCHNIDLM@A?5valid?5JSON?5document?5must?5be?5ei@ DB 'A valid JS'
	DB	'ON document must be either an array or an object value.', 00H ; `string'
CONST	ENDS
;	COMDAT ??_C@_00CNPNBAHC@?$AA@
CONST	SEGMENT
??_C@_00CNPNBAHC@?$AA@ DB 00H				; `string'
CONST	ENDS
;	COMDAT __CT??_R0?AVlogic_error@std@@@8??0logic_error@std@@QAE@ABV01@@Z40
xdata$x	SEGMENT
__CT??_R0?AVlogic_error@std@@@8??0logic_error@std@@QAE@ABV01@@Z40 DD 00H
	DD	FLAT:??_R0?AVlogic_error@std@@@8
	DD	00H
	DD	0ffffffffH
	ORG $+4
	DD	028H
	DD	FLAT:??0logic_error@std@@QAE@ABV01@@Z
xdata$x	ENDS
;	COMDAT ??_R0?AVlogic_error@std@@@8
_DATA	SEGMENT
??_R0?AVlogic_error@std@@@8 DD FLAT:??_7type_info@@6B@	; std::logic_error `RTTI Type Descriptor'
	DD	00H
	DB	'.?AVlogic_error@std@@', 00H
_DATA	ENDS
;	COMDAT __TI2?AVruntime_error@std@@
xdata$x	SEGMENT
__TI2?AVruntime_error@std@@ DD 00H
	DD	FLAT:??1runtime_error@std@@UAE@XZ
	DD	00H
	DD	FLAT:__CTA2?AVruntime_error@std@@
xdata$x	ENDS
;	COMDAT __CTA2?AVruntime_error@std@@
xdata$x	SEGMENT
__CTA2?AVruntime_error@std@@ DD 02H
	DD	FLAT:__CT??_R0?AVruntime_error@std@@@8??0runtime_error@std@@QAE@ABV01@@Z40
	DD	FLAT:__CT??_R0?AVexception@std@@@8??0exception@std@@QAE@ABV01@@Z12
xdata$x	ENDS
;	COMDAT __CT??_R0?AVexception@std@@@8??0exception@std@@QAE@ABV01@@Z12
xdata$x	SEGMENT
__CT??_R0?AVexception@std@@@8??0exception@std@@QAE@ABV01@@Z12 DD 00H
	DD	FLAT:??_R0?AVexception@std@@@8
	DD	00H
	DD	0ffffffffH
	ORG $+4
	DD	0cH
	DD	FLAT:??0exception@std@@QAE@ABV01@@Z
xdata$x	ENDS
;	COMDAT __CT??_R0?AVruntime_error@std@@@8??0runtime_error@std@@QAE@ABV01@@Z40
xdata$x	SEGMENT
__CT??_R0?AVruntime_error@std@@@8??0runtime_error@std@@QAE@ABV01@@Z40 DD 00H
	DD	FLAT:??_R0?AVruntime_error@std@@@8
	DD	00H
	DD	0ffffffffH
	ORG $+4
	DD	028H
	DD	FLAT:??0runtime_error@std@@QAE@ABV01@@Z
xdata$x	ENDS
;	COMDAT ??_R0?AVexception@std@@@8
_DATA	SEGMENT
??_R0?AVexception@std@@@8 DD FLAT:??_7type_info@@6B@	; std::exception `RTTI Type Descriptor'
	DD	00H
	DB	'.?AVexception@std@@', 00H
_DATA	ENDS
;	COMDAT ??_R0?AVruntime_error@std@@@8
_DATA	SEGMENT
??_R0?AVruntime_error@std@@@8 DD FLAT:??_7type_info@@6B@ ; std::runtime_error `RTTI Type Descriptor'
	DD	00H
	DB	'.?AVruntime_error@std@@', 00H
_DATA	ENDS
;	COMDAT ??_C@_0P@GHFPNOJB@bad?5allocation?$AA@
CONST	SEGMENT
??_C@_0P@GHFPNOJB@bad?5allocation?$AA@ DB 'bad allocation', 00H ; `string'
__bad_alloc_Message DD FLAT:??_C@_0P@GHFPNOJB@bad?5allocation?$AA@
; Function compile flags: /Odtp
; File c:\program files (x86)\microsoft visual studio 9.0\vc\include\xutility
;	COMDAT ??$_Fill_n@PAPAPAVValue@Json@@IPAPAV12@@std@@YAXPAPAPAVValue@Json@@IABQAPAV12@U_Range_checked_iterator_tag@0@@Z
_TEXT	SEGMENT
__First$ = 8						; size = 4
__Count$ = 12						; size = 4
__Val$ = 16						; size = 4
___formal$ = 20						; size = 1
??$_Fill_n@PAPAPAVValue@Json@@IPAPAV12@@std@@YAXPAPAPAVValue@Json@@IABQAPAV12@U_Range_checked_iterator_tag@0@@Z PROC ; std::_Fill_n<Json::Value * * *,unsigned int,Json::Value * *>, COMDAT

; 3196 : 	{	// copy _Val _Count times through [_First, ...)

	push	ebp
	mov	ebp, esp

; 3197 : 	for (; 0 < _Count; --_Count, ++_First)

	jmp	SHORT $LN3@Fill_n@2
$LN2@Fill_n@2:
	mov	eax, DWORD PTR __Count$[ebp]
	sub	eax, 1
	mov	DWORD PTR __Count$[ebp], eax
	mov	ecx, DWORD PTR __First$[ebp]
	add	ecx, 4
	mov	DWORD PTR __First$[ebp], ecx
$LN3@Fill_n@2:
	cmp	DWORD PTR __Count$[ebp], 0
	jbe	SHORT $LN4@Fill_n@2

; 3198 : 		*_First = _Val;

	mov	edx, DWORD PTR __First$[ebp]
	mov	eax, DWORD PTR __Val$[ebp]
	mov	ecx, DWORD PTR [eax]
	mov	DWORD PTR [edx], ecx
	jmp	SHORT $LN2@Fill_n@2
$LN4@Fill_n@2:

; 3199 : 	}

	pop	ebp
	ret	0
??$_Fill_n@PAPAPAVValue@Json@@IPAPAV12@@std@@YAXPAPAPAVValue@Json@@IABQAPAV12@U_Range_checked_iterator_tag@0@@Z ENDP ; std::_Fill_n<Json::Value * * *,unsigned int,Json::Value * *>
; Function compile flags: /Odtp
_TEXT	ENDS
;	COMDAT ??$_Fill_n@PAPAVErrorInfo@Reader@Json@@IPAV123@@std@@YAXPAPAVErrorInfo@Reader@Json@@IABQAV123@U_Range_checked_iterator_tag@0@@Z
_TEXT	SEGMENT
__First$ = 8						; size = 4
__Count$ = 12						; size = 4
__Val$ = 16						; size = 4
___formal$ = 20						; size = 1
??$_Fill_n@PAPAVErrorInfo@Reader@Json@@IPAV123@@std@@YAXPAPAVErrorInfo@Reader@Json@@IABQAV123@U_Range_checked_iterator_tag@0@@Z PROC ; std::_Fill_n<Json::Reader::ErrorInfo * *,unsigned int,Json::Reader::ErrorInfo *>, COMDAT

; 3196 : 	{	// copy _Val _Count times through [_First, ...)

	push	ebp
	mov	ebp, esp

; 3197 : 	for (; 0 < _Count; --_Count, ++_First)

	jmp	SHORT $LN3@Fill_n@3
$LN2@Fill_n@3:
	mov	eax, DWORD PTR __Count$[ebp]
	sub	eax, 1
	mov	DWORD PTR __Count$[ebp], eax
	mov	ecx, DWORD PTR __First$[ebp]
	add	ecx, 4
	mov	DWORD PTR __First$[ebp], ecx
$LN3@Fill_n@3:
	cmp	DWORD PTR __Count$[ebp], 0
	jbe	SHORT $LN4@Fill_n@3

; 3198 : 		*_First = _Val;

	mov	edx, DWORD PTR __First$[ebp]
	mov	eax, DWORD PTR __Val$[ebp]
	mov	ecx, DWORD PTR [eax]
	mov	DWORD PTR [edx], ecx
	jmp	SHORT $LN2@Fill_n@3
$LN4@Fill_n@3:

; 3199 : 	}

	pop	ebp
	ret	0
??$_Fill_n@PAPAVErrorInfo@Reader@Json@@IPAV123@@std@@YAXPAPAVErrorInfo@Reader@Json@@IABQAV123@U_Range_checked_iterator_tag@0@@Z ENDP ; std::_Fill_n<Json::Reader::ErrorInfo * *,unsigned int,Json::Reader::ErrorInfo *>
; Function compile flags: /Odtp
; File c:\program files (x86)\microsoft visual studio 9.0\vc\include\vector
_TEXT	ENDS
;	COMDAT ?_Checked_iterator_base@?$_Vector_const_iterator@VPathArgument@Json@@V?$allocator@VPathArgument@Json@@@std@@@std@@QBEPBVPathArgument@Json@@XZ
_TEXT	SEGMENT
_this$ = -4						; size = 4
?_Checked_iterator_base@?$_Vector_const_iterator@VPathArgument@Json@@V?$allocator@VPathArgument@Json@@@std@@@std@@QBEPBVPathArgument@Json@@XZ PROC ; std::_Vector_const_iterator<Json::PathArgument,std::allocator<Json::PathArgument> >::_Checked_iterator_base, COMDAT
; _this$ = ecx

; 46   : 	{

	push	ebp
	mov	ebp, esp
	push	ecx
	mov	DWORD PTR _this$[ebp], ecx

; 47   : 		return _Myptr;

	mov	eax, DWORD PTR _this$[ebp]
	mov	eax, DWORD PTR [eax+4]

; 48   : 	}

	mov	esp, ebp
	pop	ebp
	ret	0
?_Checked_iterator_base@?$_Vector_const_iterator@VPathArgument@Json@@V?$allocator@VPathArgument@Json@@@std@@@std@@QBEPBVPathArgument@Json@@XZ ENDP ; std::_Vector_const_iterator<Json::PathArgument,std::allocator<Json::PathArgument> >::_Checked_iterator_base
; Function compile flags: /Odtp
; File c:\program files (x86)\microsoft visual studio 9.0\vc\include\utility
_TEXT	ENDS
;	COMDAT ??$swap@PAVValue@Json@@@std@@YAXAAPAVValue@Json@@0@Z
_TEXT	SEGMENT
__Tmp$64843 = -4					; size = 4
__Left$ = 8						; size = 4
__Right$ = 12						; size = 4
??$swap@PAVValue@Json@@@std@@YAXAAPAVValue@Json@@0@Z PROC ; std::swap<Json::Value *>, COMDAT

; 17   : 	{	// exchange values stored at _Left and _Right

	push	ebp
	mov	ebp, esp
	push	ecx

; 18   : 	if (&_Left != &_Right)

	mov	eax, DWORD PTR __Left$[ebp]
	cmp	eax, DWORD PTR __Right$[ebp]
	je	SHORT $LN2@swap@3

; 19   : 		{	// different, worth swapping
; 20   : 		_Ty _Tmp = _Left;

	mov	ecx, DWORD PTR __Left$[ebp]
	mov	edx, DWORD PTR [ecx]
	mov	DWORD PTR __Tmp$64843[ebp], edx

; 21   : 
; 22   : 		_Left = _Right;

	mov	eax, DWORD PTR __Left$[ebp]
	mov	ecx, DWORD PTR __Right$[ebp]
	mov	edx, DWORD PTR [ecx]
	mov	DWORD PTR [eax], edx

; 23   : 		_Right = _Tmp;

	mov	eax, DWORD PTR __Right$[ebp]
	mov	ecx, DWORD PTR __Tmp$64843[ebp]
	mov	DWORD PTR [eax], ecx
$LN2@swap@3:

; 24   : 		}
; 25   : 	}

	mov	esp, ebp
	pop	ebp
	ret	0
??$swap@PAVValue@Json@@@std@@YAXAAPAVValue@Json@@0@Z ENDP ; std::swap<Json::Value *>
; Function compile flags: /Odtp
; File c:\program files (x86)\microsoft visual studio 9.0\vc\include\xutility
_TEXT	ENDS
;	COMDAT ??$_Iter_cat@PAPAPAVValue@Json@@@std@@YA?AUrandom_access_iterator_tag@0@ABQAPAPAVValue@Json@@@Z
_TEXT	SEGMENT
___$ReturnUdt$ = 8					; size = 4
___formal$ = 12						; size = 4
??$_Iter_cat@PAPAPAVValue@Json@@@std@@YA?AUrandom_access_iterator_tag@0@ABQAPAPAVValue@Json@@@Z PROC ; std::_Iter_cat<Json::Value * * *>, COMDAT

; 952  : 	{	// return category from iterator argument

	push	ebp
	mov	ebp, esp
	push	ecx

; 953  : 	typename iterator_traits<_Iter>::iterator_category _Cat;
; 954  : 	return (_Cat);

	mov	eax, DWORD PTR ___$ReturnUdt$[ebp]

; 955  : 	}

	mov	esp, ebp
	pop	ebp
	ret	0
??$_Iter_cat@PAPAPAVValue@Json@@@std@@YA?AUrandom_access_iterator_tag@0@ABQAPAPAVValue@Json@@@Z ENDP ; std::_Iter_cat<Json::Value * * *>
; Function compile flags: /Odtp
_TEXT	ENDS
;	COMDAT ??$_Iter_cat@PAPAVErrorInfo@Reader@Json@@@std@@YA?AUrandom_access_iterator_tag@0@ABQAPAVErrorInfo@Reader@Json@@@Z
_TEXT	SEGMENT
___$ReturnUdt$ = 8					; size = 4
___formal$ = 12						; size = 4
??$_Iter_cat@PAPAVErrorInfo@Reader@Json@@@std@@YA?AUrandom_access_iterator_tag@0@ABQAPAVErrorInfo@Reader@Json@@@Z PROC ; std::_Iter_cat<Json::Reader::ErrorInfo * *>, COMDAT

; 952  : 	{	// return category from iterator argument

	push	ebp
	mov	ebp, esp
	push	ecx

; 953  : 	typename iterator_traits<_Iter>::iterator_category _Cat;
; 954  : 	return (_Cat);

	mov	eax, DWORD PTR ___$ReturnUdt$[ebp]

; 955  : 	}

	mov	esp, ebp
	pop	ebp
	ret	0
??$_Iter_cat@PAPAVErrorInfo@Reader@Json@@@std@@YA?AUrandom_access_iterator_tag@0@ABQAPAVErrorInfo@Reader@Json@@@Z ENDP ; std::_Iter_cat<Json::Reader::ErrorInfo * *>
; Function compile flags: /Odtp
_TEXT	ENDS
;	COMDAT ??$_Checked_base@V?$_Vector_const_iterator@VPathArgument@Json@@V?$allocator@VPathArgument@Json@@@std@@@std@@U_Different_checked_iterator_base_type_tag@2@@std@@YAPBVPathArgument@Json@@AAV?$_Vector_const_iterator@VPathArgument@Json@@V?$allocator@VPathArgument@Json@@@std@@@0@U_Different_checked_iterator_base_type_tag@0@@Z
_TEXT	SEGMENT
__It$ = 8						; size = 4
___formal$ = 12						; size = 1
??$_Checked_base@V?$_Vector_const_iterator@VPathArgument@Json@@V?$allocator@VPathArgument@Json@@@std@@@std@@U_Different_checked_iterator_base_type_tag@2@@std@@YAPBVPathArgument@Json@@AAV?$_Vector_const_iterator@VPathArgument@Json@@V?$allocator@VPathArgument@Json@@@std@@@0@U_Different_checked_iterator_base_type_tag@0@@Z PROC ; std::_Checked_base<std::_Vector_const_iterator<Json::PathArgument,std::allocator<Json::PathArgument> >,std::_Different_checked_iterator_base_type_tag>, COMDAT

; 1138 : 	{

	push	ebp
	mov	ebp, esp

; 1139 : 		return _It._Checked_iterator_base();

	mov	ecx, DWORD PTR __It$[ebp]
	call	?_Checked_iterator_base@?$_Vector_const_iterator@VPathArgument@Json@@V?$allocator@VPathArgument@Json@@@std@@@std@@QBEPBVPathArgument@Json@@XZ ; std::_Vector_const_iterator<Json::PathArgument,std::allocator<Json::PathArgument> >::_Checked_iterator_base

; 1140 : 	}

	pop	ebp
	ret	0
??$_Checked_base@V?$_Vector_const_iterator@VPathArgument@Json@@V?$allocator@VPathArgument@Json@@@std@@@std@@U_Different_checked_iterator_base_type_tag@2@@std@@YAPBVPathArgument@Json@@AAV?$_Vector_const_iterator@VPathArgument@Json@@V?$allocator@VPathArgument@Json@@@std@@@0@U_Different_checked_iterator_base_type_tag@0@@Z ENDP ; std::_Checked_base<std::_Vector_const_iterator<Json::PathArgument,std::allocator<Json::PathArgument> >,std::_Different_checked_iterator_base_type_tag>
; Function compile flags: /Odtp
; File c:\program files (x86)\microsoft visual studio 9.0\vc\include\utility
_TEXT	ENDS
;	COMDAT ??$_Swap_adl@PAVValue@Json@@@std@@YAXAAPAVValue@Json@@0@Z
_TEXT	SEGMENT
__Left$ = 8						; size = 4
__Right$ = 12						; size = 4
??$_Swap_adl@PAVValue@Json@@@std@@YAXAAPAVValue@Json@@0@Z PROC ; std::_Swap_adl<Json::Value *>, COMDAT

; 30   : 	{	// exchange values stored at _Left and _Right, using ADL

	push	ebp
	mov	ebp, esp

; 31   : 	swap(_Left, _Right);

	mov	eax, DWORD PTR __Right$[ebp]
	push	eax
	mov	ecx, DWORD PTR __Left$[ebp]
	push	ecx
	call	??$swap@PAVValue@Json@@@std@@YAXAAPAVValue@Json@@0@Z ; std::swap<Json::Value *>
	add	esp, 8

; 32   : 	}

	pop	ebp
	ret	0
??$_Swap_adl@PAVValue@Json@@@std@@YAXAAPAVValue@Json@@0@Z ENDP ; std::_Swap_adl<Json::Value *>
; Function compile flags: /Odtp
; File c:\program files (x86)\microsoft visual studio 9.0\vc\include\xutility
_TEXT	ENDS
;	COMDAT ??$_Checked_base@PAPAPAVValue@Json@@@std@@YAPAPAPAVValue@Json@@AAPAPAPAV12@U_Unchanged_checked_iterator_base_type_tag@0@@Z
_TEXT	SEGMENT
__It$ = 8						; size = 4
___formal$ = 12						; size = 1
??$_Checked_base@PAPAPAVValue@Json@@@std@@YAPAPAPAVValue@Json@@AAPAPAPAV12@U_Unchanged_checked_iterator_base_type_tag@0@@Z PROC ; std::_Checked_base<Json::Value * * *>, COMDAT

; 1146 : 	{

	push	ebp
	mov	ebp, esp

; 1147 : 		return _It;

	mov	eax, DWORD PTR __It$[ebp]
	mov	eax, DWORD PTR [eax]

; 1148 : 	}

	pop	ebp
	ret	0
??$_Checked_base@PAPAPAVValue@Json@@@std@@YAPAPAPAVValue@Json@@AAPAPAPAV12@U_Unchanged_checked_iterator_base_type_tag@0@@Z ENDP ; std::_Checked_base<Json::Value * * *>
; Function compile flags: /Odtp
_TEXT	ENDS
;	COMDAT ??$_Checked_base@PAPAVErrorInfo@Reader@Json@@@std@@YAPAPAVErrorInfo@Reader@Json@@AAPAPAV123@U_Unchanged_checked_iterator_base_type_tag@0@@Z
_TEXT	SEGMENT
__It$ = 8						; size = 4
___formal$ = 12						; size = 1
??$_Checked_base@PAPAVErrorInfo@Reader@Json@@@std@@YAPAPAVErrorInfo@Reader@Json@@AAPAPAV123@U_Unchanged_checked_iterator_base_type_tag@0@@Z PROC ; std::_Checked_base<Json::Reader::ErrorInfo * *>, COMDAT

; 1146 : 	{

	push	ebp
	mov	ebp, esp

; 1147 : 		return _It;

	mov	eax, DWORD PTR __It$[ebp]
	mov	eax, DWORD PTR [eax]

; 1148 : 	}

	pop	ebp
	ret	0
??$_Checked_base@PAPAVErrorInfo@Reader@Json@@@std@@YAPAPAVErrorInfo@Reader@Json@@AAPAPAV123@U_Unchanged_checked_iterator_base_type_tag@0@@Z ENDP ; std::_Checked_base<Json::Reader::ErrorInfo * *>
; Function compile flags: /Odtp
_TEXT	ENDS
;	COMDAT ??$_Checked_base@PAVPathArgument@Json@@@std@@YAPAVPathArgument@Json@@AAPAV12@U_Unchanged_checked_iterator_base_type_tag@0@@Z
_TEXT	SEGMENT
__It$ = 8						; size = 4
___formal$ = 12						; size = 1
??$_Checked_base@PAVPathArgument@Json@@@std@@YAPAVPathArgument@Json@@AAPAV12@U_Unchanged_checked_iterator_base_type_tag@0@@Z PROC ; std::_Checked_base<Json::PathArgument *>, COMDAT

; 1146 : 	{

	push	ebp
	mov	ebp, esp

; 1147 : 		return _It;

	mov	eax, DWORD PTR __It$[ebp]
	mov	eax, DWORD PTR [eax]

; 1148 : 	}

	pop	ebp
	ret	0
??$_Checked_base@PAVPathArgument@Json@@@std@@YAPAVPathArgument@Json@@AAPAV12@U_Unchanged_checked_iterator_base_type_tag@0@@Z ENDP ; std::_Checked_base<Json::PathArgument *>
; Function compile flags: /Odtp
_TEXT	ENDS
;	COMDAT ??$_Ptr_cat@V?$_Vector_const_iterator@VPathArgument@Json@@V?$allocator@VPathArgument@Json@@@std@@@std@@PAVPathArgument@Json@@@std@@YA?AU_Nonscalar_ptr_iterator_tag@0@AAV?$_Vector_const_iterator@VPathArgument@Json@@V?$allocator@VPathArgument@Json@@@std@@@0@AAPAVPathArgument@Json@@@Z
_TEXT	SEGMENT
__Cat$ = -1						; size = 1
___formal$ = 8						; size = 4
___formal$ = 12						; size = 4
??$_Ptr_cat@V?$_Vector_const_iterator@VPathArgument@Json@@V?$allocator@VPathArgument@Json@@@std@@@std@@PAVPathArgument@Json@@@std@@YA?AU_Nonscalar_ptr_iterator_tag@0@AAV?$_Vector_const_iterator@VPathArgument@Json@@V?$allocator@VPathArgument@Json@@@std@@@0@AAPAVPathArgument@Json@@@Z PROC ; std::_Ptr_cat<std::_Vector_const_iterator<Json::PathArgument,std::allocator<Json::PathArgument> >,Json::PathArgument *>, COMDAT

; 1509 : 	{

	push	ebp
	mov	ebp, esp
	push	ecx

; 1510 : 	typename _Ptr_cat_helper<_T1, _T2>::_Ptr_cat _Cat;
; 1511 : 	return (_Cat);

	mov	al, BYTE PTR __Cat$[ebp]

; 1512 : 	}

	mov	esp, ebp
	pop	ebp
	ret	0
??$_Ptr_cat@V?$_Vector_const_iterator@VPathArgument@Json@@V?$allocator@VPathArgument@Json@@@std@@@std@@PAVPathArgument@Json@@@std@@YA?AU_Nonscalar_ptr_iterator_tag@0@AAV?$_Vector_const_iterator@VPathArgument@Json@@V?$allocator@VPathArgument@Json@@@std@@@0@AAPAVPathArgument@Json@@@Z ENDP ; std::_Ptr_cat<std::_Vector_const_iterator<Json::PathArgument,std::allocator<Json::PathArgument> >,Json::PathArgument *>
; Function compile flags: /Odtp
_TEXT	ENDS
;	COMDAT ??$_Checked_base@V?$_Vector_const_iterator@VPathArgument@Json@@V?$allocator@VPathArgument@Json@@@std@@@std@@@std@@YAPBVPathArgument@Json@@AAV?$_Vector_const_iterator@VPathArgument@Json@@V?$allocator@VPathArgument@Json@@@std@@@0@@Z
_TEXT	SEGMENT
__Base_tag$ = -1					; size = 1
__It$ = 8						; size = 4
??$_Checked_base@V?$_Vector_const_iterator@VPathArgument@Json@@V?$allocator@VPathArgument@Json@@@std@@@std@@@std@@YAPBVPathArgument@Json@@AAV?$_Vector_const_iterator@VPathArgument@Json@@V?$allocator@VPathArgument@Json@@@std@@@0@@Z PROC ; std::_Checked_base<std::_Vector_const_iterator<Json::PathArgument,std::allocator<Json::PathArgument> > >, COMDAT

; 1163 : 	{

	push	ebp
	mov	ebp, esp
	push	ecx

; 1164 : 		typename _Checked_iterator_base_helper<_Iter>::_Checked_iterator_base_type_tag _Base_tag;
; 1165 : 		return _Checked_base(_It, _Base_tag);

	movzx	eax, BYTE PTR __Base_tag$[ebp]
	push	eax
	mov	ecx, DWORD PTR __It$[ebp]
	push	ecx
	call	??$_Checked_base@V?$_Vector_const_iterator@VPathArgument@Json@@V?$allocator@VPathArgument@Json@@@std@@@std@@U_Different_checked_iterator_base_type_tag@2@@std@@YAPBVPathArgument@Json@@AAV?$_Vector_const_iterator@VPathArgument@Json@@V?$allocator@VPathArgument@Json@@@std@@@0@U_Different_checked_iterator_base_type_tag@0@@Z ; std::_Checked_base<std::_Vector_const_iterator<Json::PathArgument,std::allocator<Json::PathArgument> >,std::_Different_checked_iterator_base_type_tag>
	add	esp, 8

; 1166 : 	}

	mov	esp, ebp
	pop	ebp
	ret	0
??$_Checked_base@V?$_Vector_const_iterator@VPathArgument@Json@@V?$allocator@VPathArgument@Json@@@std@@@std@@@std@@YAPBVPathArgument@Json@@AAV?$_Vector_const_iterator@VPathArgument@Json@@V?$allocator@VPathArgument@Json@@@std@@@0@@Z ENDP ; std::_Checked_base<std::_Vector_const_iterator<Json::PathArgument,std::allocator<Json::PathArgument> > >
; Function compile flags: /Odtp
_TEXT	ENDS
;	COMDAT ??4ErrorInfo@Reader@Json@@QAEAAV012@ABV012@@Z
_TEXT	SEGMENT
_this$ = -4						; size = 4
___that$ = 8						; size = 4
??4ErrorInfo@Reader@Json@@QAEAAV012@ABV012@@Z PROC	; Json::Reader::ErrorInfo::operator=, COMDAT
; _this$ = ecx
	push	ebp
	mov	ebp, esp
	push	ecx
	mov	DWORD PTR _this$[ebp], ecx
	mov	eax, DWORD PTR ___that$[ebp]
	mov	ecx, DWORD PTR _this$[ebp]
	mov	edx, DWORD PTR [eax]
	mov	DWORD PTR [ecx], edx
	mov	edx, DWORD PTR [eax+4]
	mov	DWORD PTR [ecx+4], edx
	mov	eax, DWORD PTR [eax+8]
	mov	DWORD PTR [ecx+8], eax
	mov	ecx, DWORD PTR ___that$[ebp]
	add	ecx, 12					; 0000000cH
	push	ecx
	mov	ecx, DWORD PTR _this$[ebp]
	add	ecx, 12					; 0000000cH
	call	DWORD PTR __imp_??4?$basic_string@DU?$char_traits@D@std@@V?$allocator@D@2@@std@@QAEAAV01@ABV01@@Z
	mov	edx, DWORD PTR _this$[ebp]
	mov	eax, DWORD PTR ___that$[ebp]
	mov	ecx, DWORD PTR [eax+40]
	mov	DWORD PTR [edx+40], ecx
	mov	eax, DWORD PTR _this$[ebp]
	mov	esp, ebp
	pop	ebp
	ret	4
??4ErrorInfo@Reader@Json@@QAEAAV012@ABV012@@Z ENDP	; Json::Reader::ErrorInfo::operator=
; Function compile flags: /Odtp
; File c:\program files (x86)\microsoft visual studio 9.0\vc\include\xmemory
_TEXT	ENDS
;	COMDAT ??$_Destroy_range@V?$allocator@PAPAVValue@Json@@@std@@@std@@YAXPAPAPAVValue@Json@@0AAV?$allocator@PAPAVValue@Json@@@0@U_Scalar_ptr_iterator_tag@0@@Z
_TEXT	SEGMENT
__First$ = 8						; size = 4
__Last$ = 12						; size = 4
__Al$ = 16						; size = 4
___formal$ = 20						; size = 1
??$_Destroy_range@V?$allocator@PAPAVValue@Json@@@std@@@std@@YAXPAPAPAVValue@Json@@0AAV?$allocator@PAPAVValue@Json@@@0@U_Scalar_ptr_iterator_tag@0@@Z PROC ; std::_Destroy_range<std::allocator<Json::Value * *> >, COMDAT

; 241  : 	{	// destroy [_First, _Last), scalar type (do nothing)

	push	ebp
	mov	ebp, esp

; 242  : 	}

	pop	ebp
	ret	0
??$_Destroy_range@V?$allocator@PAPAVValue@Json@@@std@@@std@@YAXPAPAPAVValue@Json@@0AAV?$allocator@PAPAVValue@Json@@@0@U_Scalar_ptr_iterator_tag@0@@Z ENDP ; std::_Destroy_range<std::allocator<Json::Value * *> >
; Function compile flags: /Odtp
; File c:\program files (x86)\microsoft visual studio 9.0\vc\include\memory
_TEXT	ENDS
;	COMDAT ??$_Uninit_copy@PAPAPAVValue@Json@@PAPAPAV12@V?$allocator@PAPAVValue@Json@@@std@@@std@@YAPAPAPAVValue@Json@@PAPAPAV12@00AAV?$allocator@PAPAVValue@Json@@@0@U_Scalar_ptr_iterator_tag@0@U_Range_checked_iterator_tag@0@@Z
_TEXT	SEGMENT
__Result$ = -8						; size = 4
__Count$ = -4						; size = 4
__First$ = 8						; size = 4
__Last$ = 12						; size = 4
__Dest$ = 16						; size = 4
___formal$ = 20						; size = 4
___formal$ = 24						; size = 1
___formal$ = 28						; size = 1
??$_Uninit_copy@PAPAPAVValue@Json@@PAPAPAV12@V?$allocator@PAPAVValue@Json@@@std@@@std@@YAPAPAPAVValue@Json@@PAPAPAV12@00AAV?$allocator@PAPAVValue@Json@@@0@U_Scalar_ptr_iterator_tag@0@U_Range_checked_iterator_tag@0@@Z PROC ; std::_Uninit_copy<Json::Value * * *,Json::Value * * *,std::allocator<Json::Value * *> >, COMDAT

; 145  : 	{	// copy [_First, _Last) to raw _Dest, scalar type

	push	ebp
	mov	ebp, esp
	sub	esp, 8

; 146  : 	_DEBUG_RANGE(_First, _Last);
; 147  : 	_DEBUG_POINTER(_Dest);
; 148  : 	size_t _Count = (size_t)(_Last - _First);

	mov	eax, DWORD PTR __Last$[ebp]
	sub	eax, DWORD PTR __First$[ebp]
	sar	eax, 2
	mov	DWORD PTR __Count$[ebp], eax

; 149  : 	_FwdIt _Result = _Dest + _Count;

	mov	ecx, DWORD PTR __Count$[ebp]
	mov	edx, DWORD PTR __Dest$[ebp]
	lea	eax, DWORD PTR [edx+ecx*4]
	mov	DWORD PTR __Result$[ebp], eax

; 150  : 	if (_Count > 0)

	cmp	DWORD PTR __Count$[ebp], 0
	jbe	SHORT $LN1@Uninit_cop@2

; 151  : 		_CRT_SECURE_MEMMOVE(&*_Dest, _Count * sizeof (*_First), &*_First, _Count * sizeof (*_First));	// NB: non-overlapping move

	mov	ecx, DWORD PTR __Count$[ebp]
	shl	ecx, 2
	push	ecx
	mov	edx, DWORD PTR __First$[ebp]
	push	edx
	mov	eax, DWORD PTR __Count$[ebp]
	shl	eax, 2
	push	eax
	mov	ecx, DWORD PTR __Dest$[ebp]
	push	ecx
	call	DWORD PTR __imp__memmove_s
	add	esp, 16					; 00000010H
$LN1@Uninit_cop@2:

; 152  : 	return (_Result);

	mov	eax, DWORD PTR __Result$[ebp]

; 153  : 	}

	mov	esp, ebp
	pop	ebp
	ret	0
??$_Uninit_copy@PAPAPAVValue@Json@@PAPAPAV12@V?$allocator@PAPAVValue@Json@@@std@@@std@@YAPAPAPAVValue@Json@@PAPAPAV12@00AAV?$allocator@PAPAVValue@Json@@@0@U_Scalar_ptr_iterator_tag@0@U_Range_checked_iterator_tag@0@@Z ENDP ; std::_Uninit_copy<Json::Value * * *,Json::Value * * *,std::allocator<Json::Value * *> >
; Function compile flags: /Odtp
; File c:\program files (x86)\microsoft visual studio 9.0\vc\include\xutility
_TEXT	ENDS
;	COMDAT ??$_Ptr_cat@PAPAPAVValue@Json@@PAPAPAV12@@std@@YA?AU_Scalar_ptr_iterator_tag@0@AAPAPAPAVValue@Json@@0@Z
_TEXT	SEGMENT
__Cat$ = -1						; size = 1
___formal$ = 8						; size = 4
___formal$ = 12						; size = 4
??$_Ptr_cat@PAPAPAVValue@Json@@PAPAPAV12@@std@@YA?AU_Scalar_ptr_iterator_tag@0@AAPAPAPAVValue@Json@@0@Z PROC ; std::_Ptr_cat<Json::Value * * *,Json::Value * * *>, COMDAT

; 1509 : 	{

	push	ebp
	mov	ebp, esp
	push	ecx

; 1510 : 	typename _Ptr_cat_helper<_T1, _T2>::_Ptr_cat _Cat;
; 1511 : 	return (_Cat);

	mov	al, BYTE PTR __Cat$[ebp]

; 1512 : 	}

	mov	esp, ebp
	pop	ebp
	ret	0
??$_Ptr_cat@PAPAPAVValue@Json@@PAPAPAV12@@std@@YA?AU_Scalar_ptr_iterator_tag@0@AAPAPAPAVValue@Json@@0@Z ENDP ; std::_Ptr_cat<Json::Value * * *,Json::Value * * *>
; Function compile flags: /Odtp
_TEXT	ENDS
;	COMDAT ??$_Checked_base@PAPAPAVValue@Json@@@std@@YAPAPAPAVValue@Json@@AAPAPAPAV12@@Z
_TEXT	SEGMENT
__Base_tag$ = -1					; size = 1
__It$ = 8						; size = 4
??$_Checked_base@PAPAPAVValue@Json@@@std@@YAPAPAPAVValue@Json@@AAPAPAPAV12@@Z PROC ; std::_Checked_base<Json::Value * * *>, COMDAT

; 1163 : 	{

	push	ebp
	mov	ebp, esp
	push	ecx

; 1164 : 		typename _Checked_iterator_base_helper<_Iter>::_Checked_iterator_base_type_tag _Base_tag;
; 1165 : 		return _Checked_base(_It, _Base_tag);

	movzx	eax, BYTE PTR __Base_tag$[ebp]
	push	eax
	mov	ecx, DWORD PTR __It$[ebp]
	push	ecx
	call	??$_Checked_base@PAPAPAVValue@Json@@@std@@YAPAPAPAVValue@Json@@AAPAPAPAV12@U_Unchanged_checked_iterator_base_type_tag@0@@Z ; std::_Checked_base<Json::Value * * *>
	add	esp, 8

; 1166 : 	}

	mov	esp, ebp
	pop	ebp
	ret	0
??$_Checked_base@PAPAPAVValue@Json@@@std@@YAPAPAPAVValue@Json@@AAPAPAPAV12@@Z ENDP ; std::_Checked_base<Json::Value * * *>
; Function compile flags: /Odtp
; File c:\program files (x86)\microsoft visual studio 9.0\vc\include\xmemory
_TEXT	ENDS
;	COMDAT ??$_Destroy_range@V?$allocator@PAVErrorInfo@Reader@Json@@@std@@@std@@YAXPAPAVErrorInfo@Reader@Json@@0AAV?$allocator@PAVErrorInfo@Reader@Json@@@0@U_Scalar_ptr_iterator_tag@0@@Z
_TEXT	SEGMENT
__First$ = 8						; size = 4
__Last$ = 12						; size = 4
__Al$ = 16						; size = 4
___formal$ = 20						; size = 1
??$_Destroy_range@V?$allocator@PAVErrorInfo@Reader@Json@@@std@@@std@@YAXPAPAVErrorInfo@Reader@Json@@0AAV?$allocator@PAVErrorInfo@Reader@Json@@@0@U_Scalar_ptr_iterator_tag@0@@Z PROC ; std::_Destroy_range<std::allocator<Json::Reader::ErrorInfo *> >, COMDAT

; 241  : 	{	// destroy [_First, _Last), scalar type (do nothing)

	push	ebp
	mov	ebp, esp

; 242  : 	}

	pop	ebp
	ret	0
??$_Destroy_range@V?$allocator@PAVErrorInfo@Reader@Json@@@std@@@std@@YAXPAPAVErrorInfo@Reader@Json@@0AAV?$allocator@PAVErrorInfo@Reader@Json@@@0@U_Scalar_ptr_iterator_tag@0@@Z ENDP ; std::_Destroy_range<std::allocator<Json::Reader::ErrorInfo *> >
; Function compile flags: /Odtp
; File c:\program files (x86)\microsoft visual studio 9.0\vc\include\memory
_TEXT	ENDS
;	COMDAT ??$_Uninit_copy@PAPAVErrorInfo@Reader@Json@@PAPAV123@V?$allocator@PAVErrorInfo@Reader@Json@@@std@@@std@@YAPAPAVErrorInfo@Reader@Json@@PAPAV123@00AAV?$allocator@PAVErrorInfo@Reader@Json@@@0@U_Scalar_ptr_iterator_tag@0@U_Range_checked_iterator_tag@0@@Z
_TEXT	SEGMENT
__Result$ = -8						; size = 4
__Count$ = -4						; size = 4
__First$ = 8						; size = 4
__Last$ = 12						; size = 4
__Dest$ = 16						; size = 4
___formal$ = 20						; size = 4
___formal$ = 24						; size = 1
___formal$ = 28						; size = 1
??$_Uninit_copy@PAPAVErrorInfo@Reader@Json@@PAPAV123@V?$allocator@PAVErrorInfo@Reader@Json@@@std@@@std@@YAPAPAVErrorInfo@Reader@Json@@PAPAV123@00AAV?$allocator@PAVErrorInfo@Reader@Json@@@0@U_Scalar_ptr_iterator_tag@0@U_Range_checked_iterator_tag@0@@Z PROC ; std::_Uninit_copy<Json::Reader::ErrorInfo * *,Json::Reader::ErrorInfo * *,std::allocator<Json::Reader::ErrorInfo *> >, COMDAT

; 145  : 	{	// copy [_First, _Last) to raw _Dest, scalar type

	push	ebp
	mov	ebp, esp
	sub	esp, 8

; 146  : 	_DEBUG_RANGE(_First, _Last);
; 147  : 	_DEBUG_POINTER(_Dest);
; 148  : 	size_t _Count = (size_t)(_Last - _First);

	mov	eax, DWORD PTR __Last$[ebp]
	sub	eax, DWORD PTR __First$[ebp]
	sar	eax, 2
	mov	DWORD PTR __Count$[ebp], eax

; 149  : 	_FwdIt _Result = _Dest + _Count;

	mov	ecx, DWORD PTR __Count$[ebp]
	mov	edx, DWORD PTR __Dest$[ebp]
	lea	eax, DWORD PTR [edx+ecx*4]
	mov	DWORD PTR __Result$[ebp], eax

; 150  : 	if (_Count > 0)

	cmp	DWORD PTR __Count$[ebp], 0
	jbe	SHORT $LN1@Uninit_cop@3

; 151  : 		_CRT_SECURE_MEMMOVE(&*_Dest, _Count * sizeof (*_First), &*_First, _Count * sizeof (*_First));	// NB: non-overlapping move

	mov	ecx, DWORD PTR __Count$[ebp]
	shl	ecx, 2
	push	ecx
	mov	edx, DWORD PTR __First$[ebp]
	push	edx
	mov	eax, DWORD PTR __Count$[ebp]
	shl	eax, 2
	push	eax
	mov	ecx, DWORD PTR __Dest$[ebp]
	push	ecx
	call	DWORD PTR __imp__memmove_s
	add	esp, 16					; 00000010H
$LN1@Uninit_cop@3:

; 152  : 	return (_Result);

	mov	eax, DWORD PTR __Result$[ebp]

; 153  : 	}

	mov	esp, ebp
	pop	ebp
	ret	0
??$_Uninit_copy@PAPAVErrorInfo@Reader@Json@@PAPAV123@V?$allocator@PAVErrorInfo@Reader@Json@@@std@@@std@@YAPAPAVErrorInfo@Reader@Json@@PAPAV123@00AAV?$allocator@PAVErrorInfo@Reader@Json@@@0@U_Scalar_ptr_iterator_tag@0@U_Range_checked_iterator_tag@0@@Z ENDP ; std::_Uninit_copy<Json::Reader::ErrorInfo * *,Json::Reader::ErrorInfo * *,std::allocator<Json::Reader::ErrorInfo *> >
; Function compile flags: /Odtp
; File c:\program files (x86)\microsoft visual studio 9.0\vc\include\xutility
_TEXT	ENDS
;	COMDAT ??$_Ptr_cat@PAPAVErrorInfo@Reader@Json@@PAPAV123@@std@@YA?AU_Scalar_ptr_iterator_tag@0@AAPAPAVErrorInfo@Reader@Json@@0@Z
_TEXT	SEGMENT
__Cat$ = -1						; size = 1
___formal$ = 8						; size = 4
___formal$ = 12						; size = 4
??$_Ptr_cat@PAPAVErrorInfo@Reader@Json@@PAPAV123@@std@@YA?AU_Scalar_ptr_iterator_tag@0@AAPAPAVErrorInfo@Reader@Json@@0@Z PROC ; std::_Ptr_cat<Json::Reader::ErrorInfo * *,Json::Reader::ErrorInfo * *>, COMDAT

; 1509 : 	{

	push	ebp
	mov	ebp, esp
	push	ecx

; 1510 : 	typename _Ptr_cat_helper<_T1, _T2>::_Ptr_cat _Cat;
; 1511 : 	return (_Cat);

	mov	al, BYTE PTR __Cat$[ebp]

; 1512 : 	}

	mov	esp, ebp
	pop	ebp
	ret	0
??$_Ptr_cat@PAPAVErrorInfo@Reader@Json@@PAPAV123@@std@@YA?AU_Scalar_ptr_iterator_tag@0@AAPAPAVErrorInfo@Reader@Json@@0@Z ENDP ; std::_Ptr_cat<Json::Reader::ErrorInfo * *,Json::Reader::ErrorInfo * *>
; Function compile flags: /Odtp
_TEXT	ENDS
;	COMDAT ??$_Checked_base@PAPAVErrorInfo@Reader@Json@@@std@@YAPAPAVErrorInfo@Reader@Json@@AAPAPAV123@@Z
_TEXT	SEGMENT
__Base_tag$ = -1					; size = 1
__It$ = 8						; size = 4
??$_Checked_base@PAPAVErrorInfo@Reader@Json@@@std@@YAPAPAVErrorInfo@Reader@Json@@AAPAPAV123@@Z PROC ; std::_Checked_base<Json::Reader::ErrorInfo * *>, COMDAT

; 1163 : 	{

	push	ebp
	mov	ebp, esp
	push	ecx

; 1164 : 		typename _Checked_iterator_base_helper<_Iter>::_Checked_iterator_base_type_tag _Base_tag;
; 1165 : 		return _Checked_base(_It, _Base_tag);

	movzx	eax, BYTE PTR __Base_tag$[ebp]
	push	eax
	mov	ecx, DWORD PTR __It$[ebp]
	push	ecx
	call	??$_Checked_base@PAPAVErrorInfo@Reader@Json@@@std@@YAPAPAVErrorInfo@Reader@Json@@AAPAPAV123@U_Unchanged_checked_iterator_base_type_tag@0@@Z ; std::_Checked_base<Json::Reader::ErrorInfo * *>
	add	esp, 8

; 1166 : 	}

	mov	esp, ebp
	pop	ebp
	ret	0
??$_Checked_base@PAPAVErrorInfo@Reader@Json@@@std@@YAPAPAVErrorInfo@Reader@Json@@AAPAPAV123@@Z ENDP ; std::_Checked_base<Json::Reader::ErrorInfo * *>
; Function compile flags: /Odtp
_TEXT	ENDS
;	COMDAT ??$_Ptr_cat@V?$_Deque_iterator@VErrorInfo@Reader@Json@@V?$allocator@VErrorInfo@Reader@Json@@@std@@$00@std@@V12@@std@@YA?AU_Nonscalar_ptr_iterator_tag@0@AAV?$_Deque_iterator@VErrorInfo@Reader@Json@@V?$allocator@VErrorInfo@Reader@Json@@@std@@$00@0@0@Z
_TEXT	SEGMENT
__Cat$ = -1						; size = 1
___formal$ = 8						; size = 4
___formal$ = 12						; size = 4
??$_Ptr_cat@V?$_Deque_iterator@VErrorInfo@Reader@Json@@V?$allocator@VErrorInfo@Reader@Json@@@std@@$00@std@@V12@@std@@YA?AU_Nonscalar_ptr_iterator_tag@0@AAV?$_Deque_iterator@VErrorInfo@Reader@Json@@V?$allocator@VErrorInfo@Reader@Json@@@std@@$00@0@0@Z PROC ; std::_Ptr_cat<std::_Deque_iterator<Json::Reader::ErrorInfo,std::allocator<Json::Reader::ErrorInfo>,1>,std::_Deque_iterator<Json::Reader::ErrorInfo,std::allocator<Json::Reader::ErrorInfo>,1> >, COMDAT

; 1509 : 	{

	push	ebp
	mov	ebp, esp
	push	ecx

; 1510 : 	typename _Ptr_cat_helper<_T1, _T2>::_Ptr_cat _Cat;
; 1511 : 	return (_Cat);

	mov	al, BYTE PTR __Cat$[ebp]

; 1512 : 	}

	mov	esp, ebp
	pop	ebp
	ret	0
??$_Ptr_cat@V?$_Deque_iterator@VErrorInfo@Reader@Json@@V?$allocator@VErrorInfo@Reader@Json@@@std@@$00@std@@V12@@std@@YA?AU_Nonscalar_ptr_iterator_tag@0@AAV?$_Deque_iterator@VErrorInfo@Reader@Json@@V?$allocator@VErrorInfo@Reader@Json@@@std@@$00@0@0@Z ENDP ; std::_Ptr_cat<std::_Deque_iterator<Json::Reader::ErrorInfo,std::allocator<Json::Reader::ErrorInfo>,1>,std::_Deque_iterator<Json::Reader::ErrorInfo,std::allocator<Json::Reader::ErrorInfo>,1> >
; Function compile flags: /Odtp
_TEXT	ENDS
;	COMDAT ??$_Iter_random@V?$_Deque_iterator@VErrorInfo@Reader@Json@@V?$allocator@VErrorInfo@Reader@Json@@@std@@$00@std@@V12@@std@@YA?AUrandom_access_iterator_tag@0@ABV?$_Deque_iterator@VErrorInfo@Reader@Json@@V?$allocator@VErrorInfo@Reader@Json@@@std@@$00@0@0@Z
_TEXT	SEGMENT
___$ReturnUdt$ = 8					; size = 4
___formal$ = 12						; size = 4
___formal$ = 16						; size = 4
??$_Iter_random@V?$_Deque_iterator@VErrorInfo@Reader@Json@@V?$allocator@VErrorInfo@Reader@Json@@@std@@$00@std@@V12@@std@@YA?AUrandom_access_iterator_tag@0@ABV?$_Deque_iterator@VErrorInfo@Reader@Json@@V?$allocator@VErrorInfo@Reader@Json@@@std@@$00@0@0@Z PROC ; std::_Iter_random<std::_Deque_iterator<Json::Reader::ErrorInfo,std::allocator<Json::Reader::ErrorInfo>,1>,std::_Deque_iterator<Json::Reader::ErrorInfo,std::allocator<Json::Reader::ErrorInfo>,1> >, COMDAT

; 993  : 	{	// return category from iterator argument

	push	ebp
	mov	ebp, esp
	push	ecx

; 994  : 	typename _Iter_random_helper<
; 995  : 		iterator_traits<_Iter1>::iterator_category, 
; 996  : 		iterator_traits<_Iter2>::iterator_category>::_Iter_random_cat _Cat;
; 997  : 	return (_Cat);

	mov	eax, DWORD PTR ___$ReturnUdt$[ebp]

; 998  : 	}

	mov	esp, ebp
	pop	ebp
	ret	0
??$_Iter_random@V?$_Deque_iterator@VErrorInfo@Reader@Json@@V?$allocator@VErrorInfo@Reader@Json@@@std@@$00@std@@V12@@std@@YA?AUrandom_access_iterator_tag@0@ABV?$_Deque_iterator@VErrorInfo@Reader@Json@@V?$allocator@VErrorInfo@Reader@Json@@@std@@$00@0@0@Z ENDP ; std::_Iter_random<std::_Deque_iterator<Json::Reader::ErrorInfo,std::allocator<Json::Reader::ErrorInfo>,1>,std::_Deque_iterator<Json::Reader::ErrorInfo,std::allocator<Json::Reader::ErrorInfo>,1> >
; Function compile flags: /Odtp
_TEXT	ENDS
;	COMDAT ??$_Ptr_cat@V?$_Deque_iterator@PAVValue@Json@@V?$allocator@PAVValue@Json@@@std@@$00@std@@V12@@std@@YA?AU_Nonscalar_ptr_iterator_tag@0@AAV?$_Deque_iterator@PAVValue@Json@@V?$allocator@PAVValue@Json@@@std@@$00@0@0@Z
_TEXT	SEGMENT
__Cat$ = -1						; size = 1
___formal$ = 8						; size = 4
___formal$ = 12						; size = 4
??$_Ptr_cat@V?$_Deque_iterator@PAVValue@Json@@V?$allocator@PAVValue@Json@@@std@@$00@std@@V12@@std@@YA?AU_Nonscalar_ptr_iterator_tag@0@AAV?$_Deque_iterator@PAVValue@Json@@V?$allocator@PAVValue@Json@@@std@@$00@0@0@Z PROC ; std::_Ptr_cat<std::_Deque_iterator<Json::Value *,std::allocator<Json::Value *>,1>,std::_Deque_iterator<Json::Value *,std::allocator<Json::Value *>,1> >, COMDAT

; 1509 : 	{

	push	ebp
	mov	ebp, esp
	push	ecx

; 1510 : 	typename _Ptr_cat_helper<_T1, _T2>::_Ptr_cat _Cat;
; 1511 : 	return (_Cat);

	mov	al, BYTE PTR __Cat$[ebp]

; 1512 : 	}

	mov	esp, ebp
	pop	ebp
	ret	0
??$_Ptr_cat@V?$_Deque_iterator@PAVValue@Json@@V?$allocator@PAVValue@Json@@@std@@$00@std@@V12@@std@@YA?AU_Nonscalar_ptr_iterator_tag@0@AAV?$_Deque_iterator@PAVValue@Json@@V?$allocator@PAVValue@Json@@@std@@$00@0@0@Z ENDP ; std::_Ptr_cat<std::_Deque_iterator<Json::Value *,std::allocator<Json::Value *>,1>,std::_Deque_iterator<Json::Value *,std::allocator<Json::Value *>,1> >
; Function compile flags: /Odtp
_TEXT	ENDS
;	COMDAT ??$_Iter_random@V?$_Deque_iterator@PAVValue@Json@@V?$allocator@PAVValue@Json@@@std@@$00@std@@V12@@std@@YA?AUrandom_access_iterator_tag@0@ABV?$_Deque_iterator@PAVValue@Json@@V?$allocator@PAVValue@Json@@@std@@$00@0@0@Z
_TEXT	SEGMENT
___$ReturnUdt$ = 8					; size = 4
___formal$ = 12						; size = 4
___formal$ = 16						; size = 4
??$_Iter_random@V?$_Deque_iterator@PAVValue@Json@@V?$allocator@PAVValue@Json@@@std@@$00@std@@V12@@std@@YA?AUrandom_access_iterator_tag@0@ABV?$_Deque_iterator@PAVValue@Json@@V?$allocator@PAVValue@Json@@@std@@$00@0@0@Z PROC ; std::_Iter_random<std::_Deque_iterator<Json::Value *,std::allocator<Json::Value *>,1>,std::_Deque_iterator<Json::Value *,std::allocator<Json::Value *>,1> >, COMDAT

; 993  : 	{	// return category from iterator argument

	push	ebp
	mov	ebp, esp
	push	ecx

; 994  : 	typename _Iter_random_helper<
; 995  : 		iterator_traits<_Iter1>::iterator_category, 
; 996  : 		iterator_traits<_Iter2>::iterator_category>::_Iter_random_cat _Cat;
; 997  : 	return (_Cat);

	mov	eax, DWORD PTR ___$ReturnUdt$[ebp]

; 998  : 	}

	mov	esp, ebp
	pop	ebp
	ret	0
??$_Iter_random@V?$_Deque_iterator@PAVValue@Json@@V?$allocator@PAVValue@Json@@@std@@$00@std@@V12@@std@@YA?AUrandom_access_iterator_tag@0@ABV?$_Deque_iterator@PAVValue@Json@@V?$allocator@PAVValue@Json@@@std@@$00@0@0@Z ENDP ; std::_Iter_random<std::_Deque_iterator<Json::Value *,std::allocator<Json::Value *>,1>,std::_Deque_iterator<Json::Value *,std::allocator<Json::Value *>,1> >
; Function compile flags: /Odtp
_TEXT	ENDS
;	COMDAT ??$_Ptr_cat@V?$_Deque_const_iterator@VErrorInfo@Reader@Json@@V?$allocator@VErrorInfo@Reader@Json@@@std@@$00@std@@V?$_Deque_iterator@VErrorInfo@Reader@Json@@V?$allocator@VErrorInfo@Reader@Json@@@std@@$00@2@@std@@YA?AU_Nonscalar_ptr_iterator_tag@0@AAV?$_Deque_const_iterator@VErrorInfo@Reader@Json@@V?$allocator@VErrorInfo@Reader@Json@@@std@@$00@0@AAV?$_Deque_iterator@VErrorInfo@Reader@Json@@V?$allocator@VErrorInfo@Reader@Json@@@std@@$00@0@@Z
_TEXT	SEGMENT
__Cat$ = -1						; size = 1
___formal$ = 8						; size = 4
___formal$ = 12						; size = 4
??$_Ptr_cat@V?$_Deque_const_iterator@VErrorInfo@Reader@Json@@V?$allocator@VErrorInfo@Reader@Json@@@std@@$00@std@@V?$_Deque_iterator@VErrorInfo@Reader@Json@@V?$allocator@VErrorInfo@Reader@Json@@@std@@$00@2@@std@@YA?AU_Nonscalar_ptr_iterator_tag@0@AAV?$_Deque_const_iterator@VErrorInfo@Reader@Json@@V?$allocator@VErrorInfo@Reader@Json@@@std@@$00@0@AAV?$_Deque_iterator@VErrorInfo@Reader@Json@@V?$allocator@VErrorInfo@Reader@Json@@@std@@$00@0@@Z PROC ; std::_Ptr_cat<std::_Deque_const_iterator<Json::Reader::ErrorInfo,std::allocator<Json::Reader::ErrorInfo>,1>,std::_Deque_iterator<Json::Reader::ErrorInfo,std::allocator<Json::Reader::ErrorInfo>,1> >, COMDAT

; 1509 : 	{

	push	ebp
	mov	ebp, esp
	push	ecx

; 1510 : 	typename _Ptr_cat_helper<_T1, _T2>::_Ptr_cat _Cat;
; 1511 : 	return (_Cat);

	mov	al, BYTE PTR __Cat$[ebp]

; 1512 : 	}

	mov	esp, ebp
	pop	ebp
	ret	0
??$_Ptr_cat@V?$_Deque_const_iterator@VErrorInfo@Reader@Json@@V?$allocator@VErrorInfo@Reader@Json@@@std@@$00@std@@V?$_Deque_iterator@VErrorInfo@Reader@Json@@V?$allocator@VErrorInfo@Reader@Json@@@std@@$00@2@@std@@YA?AU_Nonscalar_ptr_iterator_tag@0@AAV?$_Deque_const_iterator@VErrorInfo@Reader@Json@@V?$allocator@VErrorInfo@Reader@Json@@@std@@$00@0@AAV?$_Deque_iterator@VErrorInfo@Reader@Json@@V?$allocator@VErrorInfo@Reader@Json@@@std@@$00@0@@Z ENDP ; std::_Ptr_cat<std::_Deque_const_iterator<Json::Reader::ErrorInfo,std::allocator<Json::Reader::ErrorInfo>,1>,std::_Deque_iterator<Json::Reader::ErrorInfo,std::allocator<Json::Reader::ErrorInfo>,1> >
; Function compile flags: /Odtp
_TEXT	ENDS
;	COMDAT ??$_Iter_random@V?$_Deque_const_iterator@VErrorInfo@Reader@Json@@V?$allocator@VErrorInfo@Reader@Json@@@std@@$00@std@@V?$_Deque_iterator@VErrorInfo@Reader@Json@@V?$allocator@VErrorInfo@Reader@Json@@@std@@$00@2@@std@@YA?AUrandom_access_iterator_tag@0@ABV?$_Deque_const_iterator@VErrorInfo@Reader@Json@@V?$allocator@VErrorInfo@Reader@Json@@@std@@$00@0@ABV?$_Deque_iterator@VErrorInfo@Reader@Json@@V?$allocator@VErrorInfo@Reader@Json@@@std@@$00@0@@Z
_TEXT	SEGMENT
___$ReturnUdt$ = 8					; size = 4
___formal$ = 12						; size = 4
___formal$ = 16						; size = 4
??$_Iter_random@V?$_Deque_const_iterator@VErrorInfo@Reader@Json@@V?$allocator@VErrorInfo@Reader@Json@@@std@@$00@std@@V?$_Deque_iterator@VErrorInfo@Reader@Json@@V?$allocator@VErrorInfo@Reader@Json@@@std@@$00@2@@std@@YA?AUrandom_access_iterator_tag@0@ABV?$_Deque_const_iterator@VErrorInfo@Reader@Json@@V?$allocator@VErrorInfo@Reader@Json@@@std@@$00@0@ABV?$_Deque_iterator@VErrorInfo@Reader@Json@@V?$allocator@VErrorInfo@Reader@Json@@@std@@$00@0@@Z PROC ; std::_Iter_random<std::_Deque_const_iterator<Json::Reader::ErrorInfo,std::allocator<Json::Reader::ErrorInfo>,1>,std::_Deque_iterator<Json::Reader::ErrorInfo,std::allocator<Json::Reader::ErrorInfo>,1> >, COMDAT

; 993  : 	{	// return category from iterator argument

	push	ebp
	mov	ebp, esp
	push	ecx

; 994  : 	typename _Iter_random_helper<
; 995  : 		iterator_traits<_Iter1>::iterator_category, 
; 996  : 		iterator_traits<_Iter2>::iterator_category>::_Iter_random_cat _Cat;
; 997  : 	return (_Cat);

	mov	eax, DWORD PTR ___$ReturnUdt$[ebp]

; 998  : 	}

	mov	esp, ebp
	pop	ebp
	ret	0
??$_Iter_random@V?$_Deque_const_iterator@VErrorInfo@Reader@Json@@V?$allocator@VErrorInfo@Reader@Json@@@std@@$00@std@@V?$_Deque_iterator@VErrorInfo@Reader@Json@@V?$allocator@VErrorInfo@Reader@Json@@@std@@$00@2@@std@@YA?AUrandom_access_iterator_tag@0@ABV?$_Deque_const_iterator@VErrorInfo@Reader@Json@@V?$allocator@VErrorInfo@Reader@Json@@@std@@$00@0@ABV?$_Deque_iterator@VErrorInfo@Reader@Json@@V?$allocator@VErrorInfo@Reader@Json@@@std@@$00@0@@Z ENDP ; std::_Iter_random<std::_Deque_const_iterator<Json::Reader::ErrorInfo,std::allocator<Json::Reader::ErrorInfo>,1>,std::_Deque_iterator<Json::Reader::ErrorInfo,std::allocator<Json::Reader::ErrorInfo>,1> >
; Function compile flags: /Odtp
_TEXT	ENDS
;	COMDAT ??$_Iter_cat@V?$_Deque_const_iterator@VErrorInfo@Reader@Json@@V?$allocator@VErrorInfo@Reader@Json@@@std@@$00@std@@@std@@YA?AUrandom_access_iterator_tag@0@ABV?$_Deque_const_iterator@VErrorInfo@Reader@Json@@V?$allocator@VErrorInfo@Reader@Json@@@std@@$00@0@@Z
_TEXT	SEGMENT
___$ReturnUdt$ = 8					; size = 4
___formal$ = 12						; size = 4
??$_Iter_cat@V?$_Deque_const_iterator@VErrorInfo@Reader@Json@@V?$allocator@VErrorInfo@Reader@Json@@@std@@$00@std@@@std@@YA?AUrandom_access_iterator_tag@0@ABV?$_Deque_const_iterator@VErrorInfo@Reader@Json@@V?$allocator@VErrorInfo@Reader@Json@@@std@@$00@0@@Z PROC ; std::_Iter_cat<std::_Deque_const_iterator<Json::Reader::ErrorInfo,std::allocator<Json::Reader::ErrorInfo>,1> >, COMDAT

; 952  : 	{	// return category from iterator argument

	push	ebp
	mov	ebp, esp
	push	ecx

; 953  : 	typename iterator_traits<_Iter>::iterator_category _Cat;
; 954  : 	return (_Cat);

	mov	eax, DWORD PTR ___$ReturnUdt$[ebp]

; 955  : 	}

	mov	esp, ebp
	pop	ebp
	ret	0
??$_Iter_cat@V?$_Deque_const_iterator@VErrorInfo@Reader@Json@@V?$allocator@VErrorInfo@Reader@Json@@@std@@$00@std@@@std@@YA?AUrandom_access_iterator_tag@0@ABV?$_Deque_const_iterator@VErrorInfo@Reader@Json@@V?$allocator@VErrorInfo@Reader@Json@@@std@@$00@0@@Z ENDP ; std::_Iter_cat<std::_Deque_const_iterator<Json::Reader::ErrorInfo,std::allocator<Json::Reader::ErrorInfo>,1> >
; Function compile flags: /Odtp
_TEXT	ENDS
;	COMDAT ??$_Ptr_cat@V?$_Deque_const_iterator@PAVValue@Json@@V?$allocator@PAVValue@Json@@@std@@$00@std@@V?$_Deque_iterator@PAVValue@Json@@V?$allocator@PAVValue@Json@@@std@@$00@2@@std@@YA?AU_Nonscalar_ptr_iterator_tag@0@AAV?$_Deque_const_iterator@PAVValue@Json@@V?$allocator@PAVValue@Json@@@std@@$00@0@AAV?$_Deque_iterator@PAVValue@Json@@V?$allocator@PAVValue@Json@@@std@@$00@0@@Z
_TEXT	SEGMENT
__Cat$ = -1						; size = 1
___formal$ = 8						; size = 4
___formal$ = 12						; size = 4
??$_Ptr_cat@V?$_Deque_const_iterator@PAVValue@Json@@V?$allocator@PAVValue@Json@@@std@@$00@std@@V?$_Deque_iterator@PAVValue@Json@@V?$allocator@PAVValue@Json@@@std@@$00@2@@std@@YA?AU_Nonscalar_ptr_iterator_tag@0@AAV?$_Deque_const_iterator@PAVValue@Json@@V?$allocator@PAVValue@Json@@@std@@$00@0@AAV?$_Deque_iterator@PAVValue@Json@@V?$allocator@PAVValue@Json@@@std@@$00@0@@Z PROC ; std::_Ptr_cat<std::_Deque_const_iterator<Json::Value *,std::allocator<Json::Value *>,1>,std::_Deque_iterator<Json::Value *,std::allocator<Json::Value *>,1> >, COMDAT

; 1509 : 	{

	push	ebp
	mov	ebp, esp
	push	ecx

; 1510 : 	typename _Ptr_cat_helper<_T1, _T2>::_Ptr_cat _Cat;
; 1511 : 	return (_Cat);

	mov	al, BYTE PTR __Cat$[ebp]

; 1512 : 	}

	mov	esp, ebp
	pop	ebp
	ret	0
??$_Ptr_cat@V?$_Deque_const_iterator@PAVValue@Json@@V?$allocator@PAVValue@Json@@@std@@$00@std@@V?$_Deque_iterator@PAVValue@Json@@V?$allocator@PAVValue@Json@@@std@@$00@2@@std@@YA?AU_Nonscalar_ptr_iterator_tag@0@AAV?$_Deque_const_iterator@PAVValue@Json@@V?$allocator@PAVValue@Json@@@std@@$00@0@AAV?$_Deque_iterator@PAVValue@Json@@V?$allocator@PAVValue@Json@@@std@@$00@0@@Z ENDP ; std::_Ptr_cat<std::_Deque_const_iterator<Json::Value *,std::allocator<Json::Value *>,1>,std::_Deque_iterator<Json::Value *,std::allocator<Json::Value *>,1> >
; Function compile flags: /Odtp
_TEXT	ENDS
;	COMDAT ??$_Iter_random@V?$_Deque_const_iterator@PAVValue@Json@@V?$allocator@PAVValue@Json@@@std@@$00@std@@V?$_Deque_iterator@PAVValue@Json@@V?$allocator@PAVValue@Json@@@std@@$00@2@@std@@YA?AUrandom_access_iterator_tag@0@ABV?$_Deque_const_iterator@PAVValue@Json@@V?$allocator@PAVValue@Json@@@std@@$00@0@ABV?$_Deque_iterator@PAVValue@Json@@V?$allocator@PAVValue@Json@@@std@@$00@0@@Z
_TEXT	SEGMENT
___$ReturnUdt$ = 8					; size = 4
___formal$ = 12						; size = 4
___formal$ = 16						; size = 4
??$_Iter_random@V?$_Deque_const_iterator@PAVValue@Json@@V?$allocator@PAVValue@Json@@@std@@$00@std@@V?$_Deque_iterator@PAVValue@Json@@V?$allocator@PAVValue@Json@@@std@@$00@2@@std@@YA?AUrandom_access_iterator_tag@0@ABV?$_Deque_const_iterator@PAVValue@Json@@V?$allocator@PAVValue@Json@@@std@@$00@0@ABV?$_Deque_iterator@PAVValue@Json@@V?$allocator@PAVValue@Json@@@std@@$00@0@@Z PROC ; std::_Iter_random<std::_Deque_const_iterator<Json::Value *,std::allocator<Json::Value *>,1>,std::_Deque_iterator<Json::Value *,std::allocator<Json::Value *>,1> >, COMDAT

; 993  : 	{	// return category from iterator argument

	push	ebp
	mov	ebp, esp
	push	ecx

; 994  : 	typename _Iter_random_helper<
; 995  : 		iterator_traits<_Iter1>::iterator_category, 
; 996  : 		iterator_traits<_Iter2>::iterator_category>::_Iter_random_cat _Cat;
; 997  : 	return (_Cat);

	mov	eax, DWORD PTR ___$ReturnUdt$[ebp]

; 998  : 	}

	mov	esp, ebp
	pop	ebp
	ret	0
??$_Iter_random@V?$_Deque_const_iterator@PAVValue@Json@@V?$allocator@PAVValue@Json@@@std@@$00@std@@V?$_Deque_iterator@PAVValue@Json@@V?$allocator@PAVValue@Json@@@std@@$00@2@@std@@YA?AUrandom_access_iterator_tag@0@ABV?$_Deque_const_iterator@PAVValue@Json@@V?$allocator@PAVValue@Json@@@std@@$00@0@ABV?$_Deque_iterator@PAVValue@Json@@V?$allocator@PAVValue@Json@@@std@@$00@0@@Z ENDP ; std::_Iter_random<std::_Deque_const_iterator<Json::Value *,std::allocator<Json::Value *>,1>,std::_Deque_iterator<Json::Value *,std::allocator<Json::Value *>,1> >
; Function compile flags: /Odtp
_TEXT	ENDS
;	COMDAT ??$_Iter_cat@V?$_Deque_const_iterator@PAVValue@Json@@V?$allocator@PAVValue@Json@@@std@@$00@std@@@std@@YA?AUrandom_access_iterator_tag@0@ABV?$_Deque_const_iterator@PAVValue@Json@@V?$allocator@PAVValue@Json@@@std@@$00@0@@Z
_TEXT	SEGMENT
___$ReturnUdt$ = 8					; size = 4
___formal$ = 12						; size = 4
??$_Iter_cat@V?$_Deque_const_iterator@PAVValue@Json@@V?$allocator@PAVValue@Json@@@std@@$00@std@@@std@@YA?AUrandom_access_iterator_tag@0@ABV?$_Deque_const_iterator@PAVValue@Json@@V?$allocator@PAVValue@Json@@@std@@$00@0@@Z PROC ; std::_Iter_cat<std::_Deque_const_iterator<Json::Value *,std::allocator<Json::Value *>,1> >, COMDAT

; 952  : 	{	// return category from iterator argument

	push	ebp
	mov	ebp, esp
	push	ecx

; 953  : 	typename iterator_traits<_Iter>::iterator_category _Cat;
; 954  : 	return (_Cat);

	mov	eax, DWORD PTR ___$ReturnUdt$[ebp]

; 955  : 	}

	mov	esp, ebp
	pop	ebp
	ret	0
??$_Iter_cat@V?$_Deque_const_iterator@PAVValue@Json@@V?$allocator@PAVValue@Json@@@std@@$00@std@@@std@@YA?AUrandom_access_iterator_tag@0@ABV?$_Deque_const_iterator@PAVValue@Json@@V?$allocator@PAVValue@Json@@@std@@$00@0@@Z ENDP ; std::_Iter_cat<std::_Deque_const_iterator<Json::Value *,std::allocator<Json::Value *>,1> >
; Function compile flags: /Odtp
_TEXT	ENDS
;	COMDAT ??$_Ptr_cat@PAVPathArgument@Json@@PAV12@@std@@YA?AU_Nonscalar_ptr_iterator_tag@0@AAPAVPathArgument@Json@@0@Z
_TEXT	SEGMENT
__Cat$ = -1						; size = 1
___formal$ = 8						; size = 4
___formal$ = 12						; size = 4
??$_Ptr_cat@PAVPathArgument@Json@@PAV12@@std@@YA?AU_Nonscalar_ptr_iterator_tag@0@AAPAVPathArgument@Json@@0@Z PROC ; std::_Ptr_cat<Json::PathArgument *,Json::PathArgument *>, COMDAT

; 1509 : 	{

	push	ebp
	mov	ebp, esp
	push	ecx

; 1510 : 	typename _Ptr_cat_helper<_T1, _T2>::_Ptr_cat _Cat;
; 1511 : 	return (_Cat);

	mov	al, BYTE PTR __Cat$[ebp]

; 1512 : 	}

	mov	esp, ebp
	pop	ebp
	ret	0
??$_Ptr_cat@PAVPathArgument@Json@@PAV12@@std@@YA?AU_Nonscalar_ptr_iterator_tag@0@AAPAVPathArgument@Json@@0@Z ENDP ; std::_Ptr_cat<Json::PathArgument *,Json::PathArgument *>
; Function compile flags: /Odtp
_TEXT	ENDS
;	COMDAT ??$_Iter_random@PAVPathArgument@Json@@PAV12@@std@@YA?AUrandom_access_iterator_tag@0@ABQAVPathArgument@Json@@0@Z
_TEXT	SEGMENT
___$ReturnUdt$ = 8					; size = 4
___formal$ = 12						; size = 4
___formal$ = 16						; size = 4
??$_Iter_random@PAVPathArgument@Json@@PAV12@@std@@YA?AUrandom_access_iterator_tag@0@ABQAVPathArgument@Json@@0@Z PROC ; std::_Iter_random<Json::PathArgument *,Json::PathArgument *>, COMDAT

; 993  : 	{	// return category from iterator argument

	push	ebp
	mov	ebp, esp
	push	ecx

; 994  : 	typename _Iter_random_helper<
; 995  : 		iterator_traits<_Iter1>::iterator_category, 
; 996  : 		iterator_traits<_Iter2>::iterator_category>::_Iter_random_cat _Cat;
; 997  : 	return (_Cat);

	mov	eax, DWORD PTR ___$ReturnUdt$[ebp]

; 998  : 	}

	mov	esp, ebp
	pop	ebp
	ret	0
??$_Iter_random@PAVPathArgument@Json@@PAV12@@std@@YA?AUrandom_access_iterator_tag@0@ABQAVPathArgument@Json@@0@Z ENDP ; std::_Iter_random<Json::PathArgument *,Json::PathArgument *>
; Function compile flags: /Odtp
_TEXT	ENDS
;	COMDAT ??$_Checked_base@PAVPathArgument@Json@@@std@@YAPAVPathArgument@Json@@AAPAV12@@Z
_TEXT	SEGMENT
__Base_tag$ = -1					; size = 1
__It$ = 8						; size = 4
??$_Checked_base@PAVPathArgument@Json@@@std@@YAPAVPathArgument@Json@@AAPAV12@@Z PROC ; std::_Checked_base<Json::PathArgument *>, COMDAT

; 1163 : 	{

	push	ebp
	mov	ebp, esp
	push	ecx

; 1164 : 		typename _Checked_iterator_base_helper<_Iter>::_Checked_iterator_base_type_tag _Base_tag;
; 1165 : 		return _Checked_base(_It, _Base_tag);

	movzx	eax, BYTE PTR __Base_tag$[ebp]
	push	eax
	mov	ecx, DWORD PTR __It$[ebp]
	push	ecx
	call	??$_Checked_base@PAVPathArgument@Json@@@std@@YAPAVPathArgument@Json@@AAPAV12@U_Unchanged_checked_iterator_base_type_tag@0@@Z ; std::_Checked_base<Json::PathArgument *>
	add	esp, 8

; 1166 : 	}

	mov	esp, ebp
	pop	ebp
	ret	0
??$_Checked_base@PAVPathArgument@Json@@@std@@YAPAVPathArgument@Json@@AAPAV12@@Z ENDP ; std::_Checked_base<Json::PathArgument *>
; Function compile flags: /Odtp
_TEXT	ENDS
;	COMDAT ??0bad_alloc@std@@QAE@ABV01@@Z
_TEXT	SEGMENT
_this$ = -4						; size = 4
___that$ = 8						; size = 4
??0bad_alloc@std@@QAE@ABV01@@Z PROC			; std::bad_alloc::bad_alloc, COMDAT
; _this$ = ecx
	push	ebp
	mov	ebp, esp
	push	ecx
	mov	DWORD PTR _this$[ebp], ecx
	mov	eax, DWORD PTR ___that$[ebp]
	push	eax
	mov	ecx, DWORD PTR _this$[ebp]
	call	DWORD PTR __imp_??0exception@std@@QAE@ABV01@@Z
	mov	ecx, DWORD PTR _this$[ebp]
	mov	DWORD PTR [ecx], OFFSET ??_7bad_alloc@std@@6B@
	mov	eax, DWORD PTR _this$[ebp]
	mov	esp, ebp
	pop	ebp
	ret	4
??0bad_alloc@std@@QAE@ABV01@@Z ENDP			; std::bad_alloc::bad_alloc
; Function compile flags: /Odtp
; File c:\program files (x86)\microsoft visual studio 9.0\vc\include\xmemory
_TEXT	ENDS
;	COMDAT ??$?0VErrorInfo@Reader@Json@@@?$allocator@V_Aux_cont@std@@@std@@QAE@ABV?$allocator@VErrorInfo@Reader@Json@@@1@@Z
_TEXT	SEGMENT
_this$ = -4						; size = 4
___formal$ = 8						; size = 4
??$?0VErrorInfo@Reader@Json@@@?$allocator@V_Aux_cont@std@@@std@@QAE@ABV?$allocator@VErrorInfo@Reader@Json@@@1@@Z PROC ; std::allocator<std::_Aux_cont>::allocator<std::_Aux_cont><Json::Reader::ErrorInfo>, COMDAT
; _this$ = ecx

; 128  : 		allocator(const allocator<_Other>&) _THROW0()

	push	ebp
	mov	ebp, esp
	push	ecx
	mov	DWORD PTR _this$[ebp], ecx

; 129  : 		{	// construct from a related allocator (do nothing)
; 130  : 		}

	mov	eax, DWORD PTR _this$[ebp]
	mov	esp, ebp
	pop	ebp
	ret	4
??$?0VErrorInfo@Reader@Json@@@?$allocator@V_Aux_cont@std@@@std@@QAE@ABV?$allocator@VErrorInfo@Reader@Json@@@1@@Z ENDP ; std::allocator<std::_Aux_cont>::allocator<std::_Aux_cont><Json::Reader::ErrorInfo>
; Function compile flags: /Odtp
_TEXT	ENDS
;	COMDAT ??$?0PAVValue@Json@@@?$allocator@V_Aux_cont@std@@@std@@QAE@ABV?$allocator@PAVValue@Json@@@1@@Z
_TEXT	SEGMENT
_this$ = -4						; size = 4
___formal$ = 8						; size = 4
??$?0PAVValue@Json@@@?$allocator@V_Aux_cont@std@@@std@@QAE@ABV?$allocator@PAVValue@Json@@@1@@Z PROC ; std::allocator<std::_Aux_cont>::allocator<std::_Aux_cont><Json::Value *>, COMDAT
; _this$ = ecx

; 128  : 		allocator(const allocator<_Other>&) _THROW0()

	push	ebp
	mov	ebp, esp
	push	ecx
	mov	DWORD PTR _this$[ebp], ecx

; 129  : 		{	// construct from a related allocator (do nothing)
; 130  : 		}

	mov	eax, DWORD PTR _this$[ebp]
	mov	esp, ebp
	pop	ebp
	ret	4
??$?0PAVValue@Json@@@?$allocator@V_Aux_cont@std@@@std@@QAE@ABV?$allocator@PAVValue@Json@@@1@@Z ENDP ; std::allocator<std::_Aux_cont>::allocator<std::_Aux_cont><Json::Value *>
; Function compile flags: /Odtp
_TEXT	ENDS
;	COMDAT ??$_Destroy@PAVErrorInfo@Reader@Json@@@std@@YAXPAPAVErrorInfo@Reader@Json@@@Z
_TEXT	SEGMENT
__Ptr$ = 8						; size = 4
??$_Destroy@PAVErrorInfo@Reader@Json@@@std@@YAXPAPAVErrorInfo@Reader@Json@@@Z PROC ; std::_Destroy<Json::Reader::ErrorInfo *>, COMDAT

; 58   : 	{	// destroy object at _Ptr

	push	ebp
	mov	ebp, esp

; 59   : 	_DESTRUCTOR(_Ty, _Ptr);
; 60   : 	}

	pop	ebp
	ret	0
??$_Destroy@PAVErrorInfo@Reader@Json@@@std@@YAXPAPAVErrorInfo@Reader@Json@@@Z ENDP ; std::_Destroy<Json::Reader::ErrorInfo *>
; Function compile flags: /Odtp
_TEXT	ENDS
;	COMDAT ??$?0VErrorInfo@Reader@Json@@@?$allocator@PAVErrorInfo@Reader@Json@@@std@@QAE@ABV?$allocator@VErrorInfo@Reader@Json@@@1@@Z
_TEXT	SEGMENT
_this$ = -4						; size = 4
___formal$ = 8						; size = 4
??$?0VErrorInfo@Reader@Json@@@?$allocator@PAVErrorInfo@Reader@Json@@@std@@QAE@ABV?$allocator@VErrorInfo@Reader@Json@@@1@@Z PROC ; std::allocator<Json::Reader::ErrorInfo *>::allocator<Json::Reader::ErrorInfo *><Json::Reader::ErrorInfo>, COMDAT
; _this$ = ecx

; 128  : 		allocator(const allocator<_Other>&) _THROW0()

	push	ebp
	mov	ebp, esp
	push	ecx
	mov	DWORD PTR _this$[ebp], ecx

; 129  : 		{	// construct from a related allocator (do nothing)
; 130  : 		}

	mov	eax, DWORD PTR _this$[ebp]
	mov	esp, ebp
	pop	ebp
	ret	4
??$?0VErrorInfo@Reader@Json@@@?$allocator@PAVErrorInfo@Reader@Json@@@std@@QAE@ABV?$allocator@VErrorInfo@Reader@Json@@@1@@Z ENDP ; std::allocator<Json::Reader::ErrorInfo *>::allocator<Json::Reader::ErrorInfo *><Json::Reader::ErrorInfo>
; Function compile flags: /Odtp
_TEXT	ENDS
;	COMDAT ??$_Destroy@PAPAVValue@Json@@@std@@YAXPAPAPAVValue@Json@@@Z
_TEXT	SEGMENT
__Ptr$ = 8						; size = 4
??$_Destroy@PAPAVValue@Json@@@std@@YAXPAPAPAVValue@Json@@@Z PROC ; std::_Destroy<Json::Value * *>, COMDAT

; 58   : 	{	// destroy object at _Ptr

	push	ebp
	mov	ebp, esp

; 59   : 	_DESTRUCTOR(_Ty, _Ptr);
; 60   : 	}

	pop	ebp
	ret	0
??$_Destroy@PAPAVValue@Json@@@std@@YAXPAPAPAVValue@Json@@@Z ENDP ; std::_Destroy<Json::Value * *>
; Function compile flags: /Odtp
_TEXT	ENDS
;	COMDAT ??$_Destroy@PAVValue@Json@@@std@@YAXPAPAVValue@Json@@@Z
_TEXT	SEGMENT
__Ptr$ = 8						; size = 4
??$_Destroy@PAVValue@Json@@@std@@YAXPAPAVValue@Json@@@Z PROC ; std::_Destroy<Json::Value *>, COMDAT

; 58   : 	{	// destroy object at _Ptr

	push	ebp
	mov	ebp, esp

; 59   : 	_DESTRUCTOR(_Ty, _Ptr);
; 60   : 	}

	pop	ebp
	ret	0
??$_Destroy@PAVValue@Json@@@std@@YAXPAPAVValue@Json@@@Z ENDP ; std::_Destroy<Json::Value *>
; Function compile flags: /Odtp
_TEXT	ENDS
;	COMDAT ??$?0PAVValue@Json@@@?$allocator@PAPAVValue@Json@@@std@@QAE@ABV?$allocator@PAVValue@Json@@@1@@Z
_TEXT	SEGMENT
_this$ = -4						; size = 4
___formal$ = 8						; size = 4
??$?0PAVValue@Json@@@?$allocator@PAPAVValue@Json@@@std@@QAE@ABV?$allocator@PAVValue@Json@@@1@@Z PROC ; std::allocator<Json::Value * *>::allocator<Json::Value * *><Json::Value *>, COMDAT
; _this$ = ecx

; 128  : 		allocator(const allocator<_Other>&) _THROW0()

	push	ebp
	mov	ebp, esp
	push	ecx
	mov	DWORD PTR _this$[ebp], ecx

; 129  : 		{	// construct from a related allocator (do nothing)
; 130  : 		}

	mov	eax, DWORD PTR _this$[ebp]
	mov	esp, ebp
	pop	ebp
	ret	4
??$?0PAVValue@Json@@@?$allocator@PAPAVValue@Json@@@std@@QAE@ABV?$allocator@PAVValue@Json@@@1@@Z ENDP ; std::allocator<Json::Value * *>::allocator<Json::Value * *><Json::Value *>
; Function compile flags: /Odtp
_TEXT	ENDS
;	COMDAT ??$_Destroy_range@V?$allocator@PAPAVValue@Json@@@std@@@std@@YAXPAPAPAVValue@Json@@0AAV?$allocator@PAPAVValue@Json@@@0@@Z
_TEXT	SEGMENT
$T75614 = -1						; size = 1
__First$ = 8						; size = 4
__Last$ = 12						; size = 4
__Al$ = 16						; size = 4
??$_Destroy_range@V?$allocator@PAPAVValue@Json@@@std@@@std@@YAXPAPAPAVValue@Json@@0AAV?$allocator@PAPAVValue@Json@@@0@@Z PROC ; std::_Destroy_range<std::allocator<Json::Value * *> >, COMDAT

; 224  : 	{	// destroy [_First, _Last)

	push	ebp
	mov	ebp, esp
	push	ecx

; 225  : 	_Destroy_range(_First, _Last, _Al, _Ptr_cat(_First, _Last));

	lea	eax, DWORD PTR __Last$[ebp]
	push	eax
	lea	ecx, DWORD PTR __First$[ebp]
	push	ecx
	call	??$_Ptr_cat@PAPAPAVValue@Json@@PAPAPAV12@@std@@YA?AU_Scalar_ptr_iterator_tag@0@AAPAPAPAVValue@Json@@0@Z ; std::_Ptr_cat<Json::Value * * *,Json::Value * * *>
	add	esp, 8
	mov	BYTE PTR $T75614[ebp], al
	movzx	edx, BYTE PTR $T75614[ebp]
	push	edx
	mov	eax, DWORD PTR __Al$[ebp]
	push	eax
	mov	ecx, DWORD PTR __Last$[ebp]
	push	ecx
	mov	edx, DWORD PTR __First$[ebp]
	push	edx
	call	??$_Destroy_range@V?$allocator@PAPAVValue@Json@@@std@@@std@@YAXPAPAPAVValue@Json@@0AAV?$allocator@PAPAVValue@Json@@@0@U_Scalar_ptr_iterator_tag@0@@Z ; std::_Destroy_range<std::allocator<Json::Value * *> >
	add	esp, 16					; 00000010H

; 226  : 	}

	mov	esp, ebp
	pop	ebp
	ret	0
??$_Destroy_range@V?$allocator@PAPAVValue@Json@@@std@@@std@@YAXPAPAPAVValue@Json@@0AAV?$allocator@PAPAVValue@Json@@@0@@Z ENDP ; std::_Destroy_range<std::allocator<Json::Value * *> >
; Function compile flags: /Odtp
; File c:\program files (x86)\microsoft visual studio 9.0\vc\include\memory
_TEXT	ENDS
;	COMDAT ??$unchecked_uninitialized_copy@PAPAPAVValue@Json@@PAPAPAV12@V?$allocator@PAPAVValue@Json@@@std@@@stdext@@YAPAPAPAVValue@Json@@PAPAPAV12@00AAV?$allocator@PAPAVValue@Json@@@std@@@Z
_TEXT	SEGMENT
$T75618 = -2						; size = 1
$T75617 = -1						; size = 1
__First$ = 8						; size = 4
__Last$ = 12						; size = 4
__Dest$ = 16						; size = 4
__Al$ = 20						; size = 4
??$unchecked_uninitialized_copy@PAPAPAVValue@Json@@PAPAPAV12@V?$allocator@PAPAVValue@Json@@@std@@@stdext@@YAPAPAPAVValue@Json@@PAPAPAV12@00AAV?$allocator@PAPAVValue@Json@@@std@@@Z PROC ; stdext::unchecked_uninitialized_copy<Json::Value * * *,Json::Value * * *,std::allocator<Json::Value * *> >, COMDAT

; 819  : 	{	// copy [_First, _Last) to raw _Dest, using _Al

	push	ebp
	mov	ebp, esp
	push	ecx

; 820  : 	return (_STD _Uninit_copy(_CHECKED_BASE(_First),
; 821  : 		_CHECKED_BASE(_Last), _Dest, _Al,
; 822  : 		_STD _Ptr_cat(_First, _Dest), _STD _Range_checked_iterator_tag()));

	xor	eax, eax
	mov	BYTE PTR $T75617[ebp], al
	lea	ecx, DWORD PTR __Dest$[ebp]
	push	ecx
	lea	edx, DWORD PTR __First$[ebp]
	push	edx
	call	??$_Ptr_cat@PAPAPAVValue@Json@@PAPAPAV12@@std@@YA?AU_Scalar_ptr_iterator_tag@0@AAPAPAPAVValue@Json@@0@Z ; std::_Ptr_cat<Json::Value * * *,Json::Value * * *>
	add	esp, 8
	mov	BYTE PTR $T75618[ebp], al
	movzx	eax, BYTE PTR $T75617[ebp]
	push	eax
	movzx	ecx, BYTE PTR $T75618[ebp]
	push	ecx
	mov	edx, DWORD PTR __Al$[ebp]
	push	edx
	mov	eax, DWORD PTR __Dest$[ebp]
	push	eax
	lea	ecx, DWORD PTR __Last$[ebp]
	push	ecx
	call	??$_Checked_base@PAPAPAVValue@Json@@@std@@YAPAPAPAVValue@Json@@AAPAPAPAV12@@Z ; std::_Checked_base<Json::Value * * *>
	add	esp, 4
	push	eax
	lea	edx, DWORD PTR __First$[ebp]
	push	edx
	call	??$_Checked_base@PAPAPAVValue@Json@@@std@@YAPAPAPAVValue@Json@@AAPAPAPAV12@@Z ; std::_Checked_base<Json::Value * * *>
	add	esp, 4
	push	eax
	call	??$_Uninit_copy@PAPAPAVValue@Json@@PAPAPAV12@V?$allocator@PAPAVValue@Json@@@std@@@std@@YAPAPAPAVValue@Json@@PAPAPAV12@00AAV?$allocator@PAPAVValue@Json@@@0@U_Scalar_ptr_iterator_tag@0@U_Range_checked_iterator_tag@0@@Z ; std::_Uninit_copy<Json::Value * * *,Json::Value * * *,std::allocator<Json::Value * *> >
	add	esp, 24					; 00000018H

; 823  : 	}

	mov	esp, ebp
	pop	ebp
	ret	0
??$unchecked_uninitialized_copy@PAPAPAVValue@Json@@PAPAPAV12@V?$allocator@PAPAVValue@Json@@@std@@@stdext@@YAPAPAPAVValue@Json@@PAPAPAV12@00AAV?$allocator@PAPAVValue@Json@@@std@@@Z ENDP ; stdext::unchecked_uninitialized_copy<Json::Value * * *,Json::Value * * *,std::allocator<Json::Value * *> >
; Function compile flags: /Odtp
; File c:\program files (x86)\microsoft visual studio 9.0\vc\include\xmemory
_TEXT	ENDS
;	COMDAT ??$?0VPathArgument@Json@@@?$allocator@V_Aux_cont@std@@@std@@QAE@ABV?$allocator@VPathArgument@Json@@@1@@Z
_TEXT	SEGMENT
_this$ = -4						; size = 4
___formal$ = 8						; size = 4
??$?0VPathArgument@Json@@@?$allocator@V_Aux_cont@std@@@std@@QAE@ABV?$allocator@VPathArgument@Json@@@1@@Z PROC ; std::allocator<std::_Aux_cont>::allocator<std::_Aux_cont><Json::PathArgument>, COMDAT
; _this$ = ecx

; 128  : 		allocator(const allocator<_Other>&) _THROW0()

	push	ebp
	mov	ebp, esp
	push	ecx
	mov	DWORD PTR _this$[ebp], ecx

; 129  : 		{	// construct from a related allocator (do nothing)
; 130  : 		}

	mov	eax, DWORD PTR _this$[ebp]
	mov	esp, ebp
	pop	ebp
	ret	4
??$?0VPathArgument@Json@@@?$allocator@V_Aux_cont@std@@@std@@QAE@ABV?$allocator@VPathArgument@Json@@@1@@Z ENDP ; std::allocator<std::_Aux_cont>::allocator<std::_Aux_cont><Json::PathArgument>
; Function compile flags: /Odtp
_TEXT	ENDS
;	COMDAT ??$_Destroy_range@V?$allocator@PAVErrorInfo@Reader@Json@@@std@@@std@@YAXPAPAVErrorInfo@Reader@Json@@0AAV?$allocator@PAVErrorInfo@Reader@Json@@@0@@Z
_TEXT	SEGMENT
$T75623 = -1						; size = 1
__First$ = 8						; size = 4
__Last$ = 12						; size = 4
__Al$ = 16						; size = 4
??$_Destroy_range@V?$allocator@PAVErrorInfo@Reader@Json@@@std@@@std@@YAXPAPAVErrorInfo@Reader@Json@@0AAV?$allocator@PAVErrorInfo@Reader@Json@@@0@@Z PROC ; std::_Destroy_range<std::allocator<Json::Reader::ErrorInfo *> >, COMDAT

; 224  : 	{	// destroy [_First, _Last)

	push	ebp
	mov	ebp, esp
	push	ecx

; 225  : 	_Destroy_range(_First, _Last, _Al, _Ptr_cat(_First, _Last));

	lea	eax, DWORD PTR __Last$[ebp]
	push	eax
	lea	ecx, DWORD PTR __First$[ebp]
	push	ecx
	call	??$_Ptr_cat@PAPAVErrorInfo@Reader@Json@@PAPAV123@@std@@YA?AU_Scalar_ptr_iterator_tag@0@AAPAPAVErrorInfo@Reader@Json@@0@Z ; std::_Ptr_cat<Json::Reader::ErrorInfo * *,Json::Reader::ErrorInfo * *>
	add	esp, 8
	mov	BYTE PTR $T75623[ebp], al
	movzx	edx, BYTE PTR $T75623[ebp]
	push	edx
	mov	eax, DWORD PTR __Al$[ebp]
	push	eax
	mov	ecx, DWORD PTR __Last$[ebp]
	push	ecx
	mov	edx, DWORD PTR __First$[ebp]
	push	edx
	call	??$_Destroy_range@V?$allocator@PAVErrorInfo@Reader@Json@@@std@@@std@@YAXPAPAVErrorInfo@Reader@Json@@0AAV?$allocator@PAVErrorInfo@Reader@Json@@@0@U_Scalar_ptr_iterator_tag@0@@Z ; std::_Destroy_range<std::allocator<Json::Reader::ErrorInfo *> >
	add	esp, 16					; 00000010H

; 226  : 	}

	mov	esp, ebp
	pop	ebp
	ret	0
??$_Destroy_range@V?$allocator@PAVErrorInfo@Reader@Json@@@std@@@std@@YAXPAPAVErrorInfo@Reader@Json@@0AAV?$allocator@PAVErrorInfo@Reader@Json@@@0@@Z ENDP ; std::_Destroy_range<std::allocator<Json::Reader::ErrorInfo *> >
; Function compile flags: /Odtp
; File c:\program files (x86)\microsoft visual studio 9.0\vc\include\memory
_TEXT	ENDS
;	COMDAT ??$unchecked_uninitialized_copy@PAPAVErrorInfo@Reader@Json@@PAPAV123@V?$allocator@PAVErrorInfo@Reader@Json@@@std@@@stdext@@YAPAPAVErrorInfo@Reader@Json@@PAPAV123@00AAV?$allocator@PAVErrorInfo@Reader@Json@@@std@@@Z
_TEXT	SEGMENT
$T75627 = -2						; size = 1
$T75626 = -1						; size = 1
__First$ = 8						; size = 4
__Last$ = 12						; size = 4
__Dest$ = 16						; size = 4
__Al$ = 20						; size = 4
??$unchecked_uninitialized_copy@PAPAVErrorInfo@Reader@Json@@PAPAV123@V?$allocator@PAVErrorInfo@Reader@Json@@@std@@@stdext@@YAPAPAVErrorInfo@Reader@Json@@PAPAV123@00AAV?$allocator@PAVErrorInfo@Reader@Json@@@std@@@Z PROC ; stdext::unchecked_uninitialized_copy<Json::Reader::ErrorInfo * *,Json::Reader::ErrorInfo * *,std::allocator<Json::Reader::ErrorInfo *> >, COMDAT

; 819  : 	{	// copy [_First, _Last) to raw _Dest, using _Al

	push	ebp
	mov	ebp, esp
	push	ecx

; 820  : 	return (_STD _Uninit_copy(_CHECKED_BASE(_First),
; 821  : 		_CHECKED_BASE(_Last), _Dest, _Al,
; 822  : 		_STD _Ptr_cat(_First, _Dest), _STD _Range_checked_iterator_tag()));

	xor	eax, eax
	mov	BYTE PTR $T75626[ebp], al
	lea	ecx, DWORD PTR __Dest$[ebp]
	push	ecx
	lea	edx, DWORD PTR __First$[ebp]
	push	edx
	call	??$_Ptr_cat@PAPAVErrorInfo@Reader@Json@@PAPAV123@@std@@YA?AU_Scalar_ptr_iterator_tag@0@AAPAPAVErrorInfo@Reader@Json@@0@Z ; std::_Ptr_cat<Json::Reader::ErrorInfo * *,Json::Reader::ErrorInfo * *>
	add	esp, 8
	mov	BYTE PTR $T75627[ebp], al
	movzx	eax, BYTE PTR $T75626[ebp]
	push	eax
	movzx	ecx, BYTE PTR $T75627[ebp]
	push	ecx
	mov	edx, DWORD PTR __Al$[ebp]
	push	edx
	mov	eax, DWORD PTR __Dest$[ebp]
	push	eax
	lea	ecx, DWORD PTR __Last$[ebp]
	push	ecx
	call	??$_Checked_base@PAPAVErrorInfo@Reader@Json@@@std@@YAPAPAVErrorInfo@Reader@Json@@AAPAPAV123@@Z ; std::_Checked_base<Json::Reader::ErrorInfo * *>
	add	esp, 4
	push	eax
	lea	edx, DWORD PTR __First$[ebp]
	push	edx
	call	??$_Checked_base@PAPAVErrorInfo@Reader@Json@@@std@@YAPAPAVErrorInfo@Reader@Json@@AAPAPAV123@@Z ; std::_Checked_base<Json::Reader::ErrorInfo * *>
	add	esp, 4
	push	eax
	call	??$_Uninit_copy@PAPAVErrorInfo@Reader@Json@@PAPAV123@V?$allocator@PAVErrorInfo@Reader@Json@@@std@@@std@@YAPAPAVErrorInfo@Reader@Json@@PAPAV123@00AAV?$allocator@PAVErrorInfo@Reader@Json@@@0@U_Scalar_ptr_iterator_tag@0@U_Range_checked_iterator_tag@0@@Z ; std::_Uninit_copy<Json::Reader::ErrorInfo * *,Json::Reader::ErrorInfo * *,std::allocator<Json::Reader::ErrorInfo *> >
	add	esp, 24					; 00000018H

; 823  : 	}

	mov	esp, ebp
	pop	ebp
	ret	0
??$unchecked_uninitialized_copy@PAPAVErrorInfo@Reader@Json@@PAPAV123@V?$allocator@PAVErrorInfo@Reader@Json@@@std@@@stdext@@YAPAPAVErrorInfo@Reader@Json@@PAPAV123@00AAV?$allocator@PAVErrorInfo@Reader@Json@@@std@@@Z ENDP ; stdext::unchecked_uninitialized_copy<Json::Reader::ErrorInfo * *,Json::Reader::ErrorInfo * *,std::allocator<Json::Reader::ErrorInfo *> >
; Function compile flags: /Odtp
; File c:\program files (x86)\microsoft visual studio 9.0\vc\include\xmemory
_TEXT	ENDS
;	COMDAT ?max_size@?$allocator@PAVValue@Json@@@std@@QBEIXZ
_TEXT	SEGMENT
tv65 = -12						; size = 4
_this$ = -8						; size = 4
__Count$ = -4						; size = 4
?max_size@?$allocator@PAVValue@Json@@@std@@QBEIXZ PROC	; std::allocator<Json::Value *>::max_size, COMDAT
; _this$ = ecx

; 164  : 		{	// estimate maximum array size

	push	ebp
	mov	ebp, esp
	sub	esp, 12					; 0000000cH
	mov	DWORD PTR _this$[ebp], ecx

; 165  : 		_SIZT _Count = (_SIZT)(-1) / sizeof (_Ty);

	mov	DWORD PTR __Count$[ebp], 1073741823	; 3fffffffH

; 166  : 		return (0 < _Count ? _Count : 1);

	cmp	DWORD PTR __Count$[ebp], 0
	jbe	SHORT $LN3@max_size@4
	mov	eax, DWORD PTR __Count$[ebp]
	mov	DWORD PTR tv65[ebp], eax
	jmp	SHORT $LN4@max_size@4
$LN3@max_size@4:
	mov	DWORD PTR tv65[ebp], 1
$LN4@max_size@4:
	mov	eax, DWORD PTR tv65[ebp]

; 167  : 		}

	mov	esp, ebp
	pop	ebp
	ret	0
?max_size@?$allocator@PAVValue@Json@@@std@@QBEIXZ ENDP	; std::allocator<Json::Value *>::max_size
; Function compile flags: /Odtp
_TEXT	ENDS
;	COMDAT ?max_size@?$allocator@VErrorInfo@Reader@Json@@@std@@QBEIXZ
_TEXT	SEGMENT
tv65 = -12						; size = 4
_this$ = -8						; size = 4
__Count$ = -4						; size = 4
?max_size@?$allocator@VErrorInfo@Reader@Json@@@std@@QBEIXZ PROC ; std::allocator<Json::Reader::ErrorInfo>::max_size, COMDAT
; _this$ = ecx

; 164  : 		{	// estimate maximum array size

	push	ebp
	mov	ebp, esp
	sub	esp, 12					; 0000000cH
	mov	DWORD PTR _this$[ebp], ecx

; 165  : 		_SIZT _Count = (_SIZT)(-1) / sizeof (_Ty);

	mov	DWORD PTR __Count$[ebp], 97612893	; 05d1745dH

; 166  : 		return (0 < _Count ? _Count : 1);

	cmp	DWORD PTR __Count$[ebp], 0
	jbe	SHORT $LN3@max_size@5
	mov	eax, DWORD PTR __Count$[ebp]
	mov	DWORD PTR tv65[ebp], eax
	jmp	SHORT $LN4@max_size@5
$LN3@max_size@5:
	mov	DWORD PTR tv65[ebp], 1
$LN4@max_size@5:
	mov	eax, DWORD PTR tv65[ebp]

; 167  : 		}

	mov	esp, ebp
	pop	ebp
	ret	0
?max_size@?$allocator@VErrorInfo@Reader@Json@@@std@@QBEIXZ ENDP ; std::allocator<Json::Reader::ErrorInfo>::max_size
; Function compile flags: /Odtp
; File c:\program files (x86)\microsoft visual studio 9.0\vc\include\deque
_TEXT	ENDS
;	COMDAT ?max_size@?$deque@PAVValue@Json@@V?$allocator@PAVValue@Json@@@std@@@std@@QBEIXZ
_TEXT	SEGMENT
_this$ = -4						; size = 4
?max_size@?$deque@PAVValue@Json@@V?$allocator@PAVValue@Json@@@std@@@std@@QBEIXZ PROC ; std::deque<Json::Value *,std::allocator<Json::Value *> >::max_size, COMDAT
; _this$ = ecx

; 728  : 		{	// return maximum possible length of sequence

	push	ebp
	mov	ebp, esp
	push	ecx
	mov	DWORD PTR _this$[ebp], ecx

; 729  : 		return (this->_Alval.max_size());

	mov	ecx, DWORD PTR _this$[ebp]
	add	ecx, 12					; 0000000cH
	call	?max_size@?$allocator@PAVValue@Json@@@std@@QBEIXZ ; std::allocator<Json::Value *>::max_size

; 730  : 		}

	mov	esp, ebp
	pop	ebp
	ret	0
?max_size@?$deque@PAVValue@Json@@V?$allocator@PAVValue@Json@@@std@@@std@@QBEIXZ ENDP ; std::deque<Json::Value *,std::allocator<Json::Value *> >::max_size
; Function compile flags: /Odtp
; File c:\program files (x86)\microsoft visual studio 9.0\vc\include\xmemory
_TEXT	ENDS
;	COMDAT ?max_size@?$allocator@VPathArgument@Json@@@std@@QBEIXZ
_TEXT	SEGMENT
tv65 = -12						; size = 4
_this$ = -8						; size = 4
__Count$ = -4						; size = 4
?max_size@?$allocator@VPathArgument@Json@@@std@@QBEIXZ PROC ; std::allocator<Json::PathArgument>::max_size, COMDAT
; _this$ = ecx

; 164  : 		{	// estimate maximum array size

	push	ebp
	mov	ebp, esp
	sub	esp, 12					; 0000000cH
	mov	DWORD PTR _this$[ebp], ecx

; 165  : 		_SIZT _Count = (_SIZT)(-1) / sizeof (_Ty);

	mov	DWORD PTR __Count$[ebp], 119304647	; 071c71c7H

; 166  : 		return (0 < _Count ? _Count : 1);

	cmp	DWORD PTR __Count$[ebp], 0
	jbe	SHORT $LN3@max_size@6
	mov	eax, DWORD PTR __Count$[ebp]
	mov	DWORD PTR tv65[ebp], eax
	jmp	SHORT $LN4@max_size@6
$LN3@max_size@6:
	mov	DWORD PTR tv65[ebp], 1
$LN4@max_size@6:
	mov	eax, DWORD PTR tv65[ebp]

; 167  : 		}

	mov	esp, ebp
	pop	ebp
	ret	0
?max_size@?$allocator@VPathArgument@Json@@@std@@QBEIXZ ENDP ; std::allocator<Json::PathArgument>::max_size
; Function compile flags: /Odtp
_TEXT	ENDS
;	COMDAT ??0ErrorInfo@Reader@Json@@QAE@ABV012@@Z
_TEXT	SEGMENT
_this$ = -4						; size = 4
___that$ = 8						; size = 4
??0ErrorInfo@Reader@Json@@QAE@ABV012@@Z PROC		; Json::Reader::ErrorInfo::ErrorInfo, COMDAT
; _this$ = ecx
	push	ebp
	mov	ebp, esp
	push	ecx
	mov	DWORD PTR _this$[ebp], ecx
	mov	eax, DWORD PTR ___that$[ebp]
	mov	ecx, DWORD PTR _this$[ebp]
	mov	edx, DWORD PTR [eax]
	mov	DWORD PTR [ecx], edx
	mov	edx, DWORD PTR [eax+4]
	mov	DWORD PTR [ecx+4], edx
	mov	eax, DWORD PTR [eax+8]
	mov	DWORD PTR [ecx+8], eax
	mov	ecx, DWORD PTR ___that$[ebp]
	add	ecx, 12					; 0000000cH
	push	ecx
	mov	ecx, DWORD PTR _this$[ebp]
	add	ecx, 12					; 0000000cH
	call	DWORD PTR __imp_??0?$basic_string@DU?$char_traits@D@std@@V?$allocator@D@2@@std@@QAE@ABV01@@Z
	mov	edx, DWORD PTR _this$[ebp]
	mov	eax, DWORD PTR ___that$[ebp]
	mov	ecx, DWORD PTR [eax+40]
	mov	DWORD PTR [edx+40], ecx
	mov	eax, DWORD PTR _this$[ebp]
	mov	esp, ebp
	pop	ebp
	ret	4
??0ErrorInfo@Reader@Json@@QAE@ABV012@@Z ENDP		; Json::Reader::ErrorInfo::ErrorInfo
; Function compile flags: /Odtp
_TEXT	ENDS
;	COMDAT ?destroy@?$allocator@PAVErrorInfo@Reader@Json@@@std@@QAEXPAPAVErrorInfo@Reader@Json@@@Z
_TEXT	SEGMENT
_this$ = -4						; size = 4
__Ptr$ = 8						; size = 4
?destroy@?$allocator@PAVErrorInfo@Reader@Json@@@std@@QAEXPAPAVErrorInfo@Reader@Json@@@Z PROC ; std::allocator<Json::Reader::ErrorInfo *>::destroy, COMDAT
; _this$ = ecx

; 159  : 		{	// destroy object at _Ptr

	push	ebp
	mov	ebp, esp
	push	ecx
	mov	DWORD PTR _this$[ebp], ecx

; 160  : 		_Destroy(_Ptr);

	mov	eax, DWORD PTR __Ptr$[ebp]
	push	eax
	call	??$_Destroy@PAVErrorInfo@Reader@Json@@@std@@YAXPAPAVErrorInfo@Reader@Json@@@Z ; std::_Destroy<Json::Reader::ErrorInfo *>
	add	esp, 4

; 161  : 		}

	mov	esp, ebp
	pop	ebp
	ret	4
?destroy@?$allocator@PAVErrorInfo@Reader@Json@@@std@@QAEXPAPAVErrorInfo@Reader@Json@@@Z ENDP ; std::allocator<Json::Reader::ErrorInfo *>::destroy
; Function compile flags: /Odtp
_TEXT	ENDS
;	COMDAT ?deallocate@?$allocator@PAVErrorInfo@Reader@Json@@@std@@QAEXPAPAVErrorInfo@Reader@Json@@I@Z
_TEXT	SEGMENT
_this$ = -4						; size = 4
__Ptr$ = 8						; size = 4
___formal$ = 12						; size = 4
?deallocate@?$allocator@PAVErrorInfo@Reader@Json@@@std@@QAEXPAPAVErrorInfo@Reader@Json@@I@Z PROC ; std::allocator<Json::Reader::ErrorInfo *>::deallocate, COMDAT
; _this$ = ecx

; 139  : 		{	// deallocate object at _Ptr, ignore size

	push	ebp
	mov	ebp, esp
	push	ecx
	mov	DWORD PTR _this$[ebp], ecx

; 140  : 		::operator delete(_Ptr);

	mov	eax, DWORD PTR __Ptr$[ebp]
	push	eax
	call	??3@YAXPAX@Z				; operator delete
	add	esp, 4

; 141  : 		}

	mov	esp, ebp
	pop	ebp
	ret	8
?deallocate@?$allocator@PAVErrorInfo@Reader@Json@@@std@@QAEXPAPAVErrorInfo@Reader@Json@@I@Z ENDP ; std::allocator<Json::Reader::ErrorInfo *>::deallocate
; Function compile flags: /Odtp
_TEXT	ENDS
;	COMDAT ?deallocate@?$allocator@VErrorInfo@Reader@Json@@@std@@QAEXPAVErrorInfo@Reader@Json@@I@Z
_TEXT	SEGMENT
_this$ = -4						; size = 4
__Ptr$ = 8						; size = 4
___formal$ = 12						; size = 4
?deallocate@?$allocator@VErrorInfo@Reader@Json@@@std@@QAEXPAVErrorInfo@Reader@Json@@I@Z PROC ; std::allocator<Json::Reader::ErrorInfo>::deallocate, COMDAT
; _this$ = ecx

; 139  : 		{	// deallocate object at _Ptr, ignore size

	push	ebp
	mov	ebp, esp
	push	ecx
	mov	DWORD PTR _this$[ebp], ecx

; 140  : 		::operator delete(_Ptr);

	mov	eax, DWORD PTR __Ptr$[ebp]
	push	eax
	call	??3@YAXPAX@Z				; operator delete
	add	esp, 4

; 141  : 		}

	mov	esp, ebp
	pop	ebp
	ret	8
?deallocate@?$allocator@VErrorInfo@Reader@Json@@@std@@QAEXPAVErrorInfo@Reader@Json@@I@Z ENDP ; std::allocator<Json::Reader::ErrorInfo>::deallocate
; Function compile flags: /Odtp
; File c:\program files (x86)\microsoft visual studio 9.0\vc\include\deque
_TEXT	ENDS
;	COMDAT ?empty@?$deque@VErrorInfo@Reader@Json@@V?$allocator@VErrorInfo@Reader@Json@@@std@@@std@@QBE_NXZ
_TEXT	SEGMENT
_this$ = -4						; size = 4
?empty@?$deque@VErrorInfo@Reader@Json@@V?$allocator@VErrorInfo@Reader@Json@@@std@@@std@@QBE_NXZ PROC ; std::deque<Json::Reader::ErrorInfo,std::allocator<Json::Reader::ErrorInfo> >::empty, COMDAT
; _this$ = ecx

; 733  : 		{	// test if sequence is empty

	push	ebp
	mov	ebp, esp
	push	ecx
	mov	DWORD PTR _this$[ebp], ecx

; 734  : 		return (_Mysize == 0);

	mov	eax, DWORD PTR _this$[ebp]
	xor	ecx, ecx
	cmp	DWORD PTR [eax+28], 0
	sete	cl
	mov	al, cl

; 735  : 		}

	mov	esp, ebp
	pop	ebp
	ret	0
?empty@?$deque@VErrorInfo@Reader@Json@@V?$allocator@VErrorInfo@Reader@Json@@@std@@@std@@QBE_NXZ ENDP ; std::deque<Json::Reader::ErrorInfo,std::allocator<Json::Reader::ErrorInfo> >::empty
; Function compile flags: /Odtp
_TEXT	ENDS
;	COMDAT ?max_size@?$deque@VErrorInfo@Reader@Json@@V?$allocator@VErrorInfo@Reader@Json@@@std@@@std@@QBEIXZ
_TEXT	SEGMENT
_this$ = -4						; size = 4
?max_size@?$deque@VErrorInfo@Reader@Json@@V?$allocator@VErrorInfo@Reader@Json@@@std@@@std@@QBEIXZ PROC ; std::deque<Json::Reader::ErrorInfo,std::allocator<Json::Reader::ErrorInfo> >::max_size, COMDAT
; _this$ = ecx

; 728  : 		{	// return maximum possible length of sequence

	push	ebp
	mov	ebp, esp
	push	ecx
	mov	DWORD PTR _this$[ebp], ecx

; 729  : 		return (this->_Alval.max_size());

	mov	ecx, DWORD PTR _this$[ebp]
	add	ecx, 12					; 0000000cH
	call	?max_size@?$allocator@VErrorInfo@Reader@Json@@@std@@QBEIXZ ; std::allocator<Json::Reader::ErrorInfo>::max_size

; 730  : 		}

	mov	esp, ebp
	pop	ebp
	ret	0
?max_size@?$deque@VErrorInfo@Reader@Json@@V?$allocator@VErrorInfo@Reader@Json@@@std@@@std@@QBEIXZ ENDP ; std::deque<Json::Reader::ErrorInfo,std::allocator<Json::Reader::ErrorInfo> >::max_size
; Function compile flags: /Odtp
; File c:\program files (x86)\microsoft visual studio 9.0\vc\include\xmemory
_TEXT	ENDS
;	COMDAT ?destroy@?$allocator@PAPAVValue@Json@@@std@@QAEXPAPAPAVValue@Json@@@Z
_TEXT	SEGMENT
_this$ = -4						; size = 4
__Ptr$ = 8						; size = 4
?destroy@?$allocator@PAPAVValue@Json@@@std@@QAEXPAPAPAVValue@Json@@@Z PROC ; std::allocator<Json::Value * *>::destroy, COMDAT
; _this$ = ecx

; 159  : 		{	// destroy object at _Ptr

	push	ebp
	mov	ebp, esp
	push	ecx
	mov	DWORD PTR _this$[ebp], ecx

; 160  : 		_Destroy(_Ptr);

	mov	eax, DWORD PTR __Ptr$[ebp]
	push	eax
	call	??$_Destroy@PAPAVValue@Json@@@std@@YAXPAPAPAVValue@Json@@@Z ; std::_Destroy<Json::Value * *>
	add	esp, 4

; 161  : 		}

	mov	esp, ebp
	pop	ebp
	ret	4
?destroy@?$allocator@PAPAVValue@Json@@@std@@QAEXPAPAPAVValue@Json@@@Z ENDP ; std::allocator<Json::Value * *>::destroy
; Function compile flags: /Odtp
_TEXT	ENDS
;	COMDAT ?deallocate@?$allocator@PAPAVValue@Json@@@std@@QAEXPAPAPAVValue@Json@@I@Z
_TEXT	SEGMENT
_this$ = -4						; size = 4
__Ptr$ = 8						; size = 4
___formal$ = 12						; size = 4
?deallocate@?$allocator@PAPAVValue@Json@@@std@@QAEXPAPAPAVValue@Json@@I@Z PROC ; std::allocator<Json::Value * *>::deallocate, COMDAT
; _this$ = ecx

; 139  : 		{	// deallocate object at _Ptr, ignore size

	push	ebp
	mov	ebp, esp
	push	ecx
	mov	DWORD PTR _this$[ebp], ecx

; 140  : 		::operator delete(_Ptr);

	mov	eax, DWORD PTR __Ptr$[ebp]
	push	eax
	call	??3@YAXPAX@Z				; operator delete
	add	esp, 4

; 141  : 		}

	mov	esp, ebp
	pop	ebp
	ret	8
?deallocate@?$allocator@PAPAVValue@Json@@@std@@QAEXPAPAPAVValue@Json@@I@Z ENDP ; std::allocator<Json::Value * *>::deallocate
; Function compile flags: /Odtp
_TEXT	ENDS
;	COMDAT ?destroy@?$allocator@PAVValue@Json@@@std@@QAEXPAPAVValue@Json@@@Z
_TEXT	SEGMENT
_this$ = -4						; size = 4
__Ptr$ = 8						; size = 4
?destroy@?$allocator@PAVValue@Json@@@std@@QAEXPAPAVValue@Json@@@Z PROC ; std::allocator<Json::Value *>::destroy, COMDAT
; _this$ = ecx

; 159  : 		{	// destroy object at _Ptr

	push	ebp
	mov	ebp, esp
	push	ecx
	mov	DWORD PTR _this$[ebp], ecx

; 160  : 		_Destroy(_Ptr);

	mov	eax, DWORD PTR __Ptr$[ebp]
	push	eax
	call	??$_Destroy@PAVValue@Json@@@std@@YAXPAPAVValue@Json@@@Z ; std::_Destroy<Json::Value *>
	add	esp, 4

; 161  : 		}

	mov	esp, ebp
	pop	ebp
	ret	4
?destroy@?$allocator@PAVValue@Json@@@std@@QAEXPAPAVValue@Json@@@Z ENDP ; std::allocator<Json::Value *>::destroy
; Function compile flags: /Odtp
_TEXT	ENDS
;	COMDAT ?deallocate@?$allocator@PAVValue@Json@@@std@@QAEXPAPAVValue@Json@@I@Z
_TEXT	SEGMENT
_this$ = -4						; size = 4
__Ptr$ = 8						; size = 4
___formal$ = 12						; size = 4
?deallocate@?$allocator@PAVValue@Json@@@std@@QAEXPAPAVValue@Json@@I@Z PROC ; std::allocator<Json::Value *>::deallocate, COMDAT
; _this$ = ecx

; 139  : 		{	// deallocate object at _Ptr, ignore size

	push	ebp
	mov	ebp, esp
	push	ecx
	mov	DWORD PTR _this$[ebp], ecx

; 140  : 		::operator delete(_Ptr);

	mov	eax, DWORD PTR __Ptr$[ebp]
	push	eax
	call	??3@YAXPAX@Z				; operator delete
	add	esp, 4

; 141  : 		}

	mov	esp, ebp
	pop	ebp
	ret	8
?deallocate@?$allocator@PAVValue@Json@@@std@@QAEXPAPAVValue@Json@@I@Z ENDP ; std::allocator<Json::Value *>::deallocate
; Function compile flags: /Odtp
_TEXT	ENDS
;	COMDAT ??0?$allocator@PAVValue@Json@@@std@@QAE@XZ
_TEXT	SEGMENT
_this$ = -4						; size = 4
??0?$allocator@PAVValue@Json@@@std@@QAE@XZ PROC		; std::allocator<Json::Value *>::allocator<Json::Value *>, COMDAT
; _this$ = ecx

; 119  : 	allocator() _THROW0()

	push	ebp
	mov	ebp, esp
	push	ecx
	mov	DWORD PTR _this$[ebp], ecx

; 120  : 		{	// construct default allocator (do nothing)
; 121  : 		}

	mov	eax, DWORD PTR _this$[ebp]
	mov	esp, ebp
	pop	ebp
	ret	0
??0?$allocator@PAVValue@Json@@@std@@QAE@XZ ENDP		; std::allocator<Json::Value *>::allocator<Json::Value *>
; Function compile flags: /Odtp
; File c:\program files (x86)\microsoft visual studio 9.0\vc\include\vector
_TEXT	ENDS
;	COMDAT ?max_size@?$vector@VPathArgument@Json@@V?$allocator@VPathArgument@Json@@@std@@@std@@QBEIXZ
_TEXT	SEGMENT
_this$ = -4						; size = 4
?max_size@?$vector@VPathArgument@Json@@V?$allocator@VPathArgument@Json@@@std@@@std@@QBEIXZ PROC ; std::vector<Json::PathArgument,std::allocator<Json::PathArgument> >::max_size, COMDAT
; _this$ = ecx

; 730  : 		{	// return maximum possible length of sequence

	push	ebp
	mov	ebp, esp
	push	ecx
	mov	DWORD PTR _this$[ebp], ecx

; 731  : 		return (this->_Alval.max_size());

	mov	ecx, DWORD PTR _this$[ebp]
	add	ecx, 8
	call	?max_size@?$allocator@VPathArgument@Json@@@std@@QBEIXZ ; std::allocator<Json::PathArgument>::max_size

; 732  : 		}

	mov	esp, ebp
	pop	ebp
	ret	0
?max_size@?$vector@VPathArgument@Json@@V?$allocator@VPathArgument@Json@@@std@@@std@@QBEIXZ ENDP ; std::vector<Json::PathArgument,std::allocator<Json::PathArgument> >::max_size
; Function compile flags: /Odtp
; File c:\program files (x86)\microsoft visual studio 9.0\vc\include\xmemory
_TEXT	ENDS
;	COMDAT ?deallocate@?$allocator@V_Aux_cont@std@@@std@@QAEXPAV_Aux_cont@2@I@Z
_TEXT	SEGMENT
_this$ = -4						; size = 4
__Ptr$ = 8						; size = 4
___formal$ = 12						; size = 4
?deallocate@?$allocator@V_Aux_cont@std@@@std@@QAEXPAV_Aux_cont@2@I@Z PROC ; std::allocator<std::_Aux_cont>::deallocate, COMDAT
; _this$ = ecx

; 139  : 		{	// deallocate object at _Ptr, ignore size

	push	ebp
	mov	ebp, esp
	push	ecx
	mov	DWORD PTR _this$[ebp], ecx

; 140  : 		::operator delete(_Ptr);

	mov	eax, DWORD PTR __Ptr$[ebp]
	push	eax
	call	??3@YAXPAX@Z				; operator delete
	add	esp, 4

; 141  : 		}

	mov	esp, ebp
	pop	ebp
	ret	8
?deallocate@?$allocator@V_Aux_cont@std@@@std@@QAEXPAV_Aux_cont@2@I@Z ENDP ; std::allocator<std::_Aux_cont>::deallocate
; Function compile flags: /Odtp
_TEXT	ENDS
;	COMDAT ??0?$allocator@VErrorInfo@Reader@Json@@@std@@QAE@ABV01@@Z
_TEXT	SEGMENT
_this$ = -4						; size = 4
___formal$ = 8						; size = 4
??0?$allocator@VErrorInfo@Reader@Json@@@std@@QAE@ABV01@@Z PROC ; std::allocator<Json::Reader::ErrorInfo>::allocator<Json::Reader::ErrorInfo>, COMDAT
; _this$ = ecx

; 123  : 	allocator(const allocator<_Ty>&) _THROW0()

	push	ebp
	mov	ebp, esp
	push	ecx
	mov	DWORD PTR _this$[ebp], ecx

; 124  : 		{	// construct by copying (do nothing)
; 125  : 		}

	mov	eax, DWORD PTR _this$[ebp]
	mov	esp, ebp
	pop	ebp
	ret	4
??0?$allocator@VErrorInfo@Reader@Json@@@std@@QAE@ABV01@@Z ENDP ; std::allocator<Json::Reader::ErrorInfo>::allocator<Json::Reader::ErrorInfo>
; Function compile flags: /Odtp
_TEXT	ENDS
;	COMDAT ??0?$allocator@VErrorInfo@Reader@Json@@@std@@QAE@XZ
_TEXT	SEGMENT
_this$ = -4						; size = 4
??0?$allocator@VErrorInfo@Reader@Json@@@std@@QAE@XZ PROC ; std::allocator<Json::Reader::ErrorInfo>::allocator<Json::Reader::ErrorInfo>, COMDAT
; _this$ = ecx

; 119  : 	allocator() _THROW0()

	push	ebp
	mov	ebp, esp
	push	ecx
	mov	DWORD PTR _this$[ebp], ecx

; 120  : 		{	// construct default allocator (do nothing)
; 121  : 		}

	mov	eax, DWORD PTR _this$[ebp]
	mov	esp, ebp
	pop	ebp
	ret	0
??0?$allocator@VErrorInfo@Reader@Json@@@std@@QAE@XZ ENDP ; std::allocator<Json::Reader::ErrorInfo>::allocator<Json::Reader::ErrorInfo>
; Function compile flags: /Odtp
_TEXT	ENDS
;	COMDAT ??0?$allocator@PAVValue@Json@@@std@@QAE@ABV01@@Z
_TEXT	SEGMENT
_this$ = -4						; size = 4
___formal$ = 8						; size = 4
??0?$allocator@PAVValue@Json@@@std@@QAE@ABV01@@Z PROC	; std::allocator<Json::Value *>::allocator<Json::Value *>, COMDAT
; _this$ = ecx

; 123  : 	allocator(const allocator<_Ty>&) _THROW0()

	push	ebp
	mov	ebp, esp
	push	ecx
	mov	DWORD PTR _this$[ebp], ecx

; 124  : 		{	// construct by copying (do nothing)
; 125  : 		}

	mov	eax, DWORD PTR _this$[ebp]
	mov	esp, ebp
	pop	ebp
	ret	4
??0?$allocator@PAVValue@Json@@@std@@QAE@ABV01@@Z ENDP	; std::allocator<Json::Value *>::allocator<Json::Value *>
; Function compile flags: /Odtp
; File c:\program files (x86)\microsoft visual studio 9.0\vc\include\deque
_TEXT	ENDS
;	COMDAT ?empty@?$deque@PAVValue@Json@@V?$allocator@PAVValue@Json@@@std@@@std@@QBE_NXZ
_TEXT	SEGMENT
_this$ = -4						; size = 4
?empty@?$deque@PAVValue@Json@@V?$allocator@PAVValue@Json@@@std@@@std@@QBE_NXZ PROC ; std::deque<Json::Value *,std::allocator<Json::Value *> >::empty, COMDAT
; _this$ = ecx

; 733  : 		{	// test if sequence is empty

	push	ebp
	mov	ebp, esp
	push	ecx
	mov	DWORD PTR _this$[ebp], ecx

; 734  : 		return (_Mysize == 0);

	mov	eax, DWORD PTR _this$[ebp]
	xor	ecx, ecx
	cmp	DWORD PTR [eax+28], 0
	sete	cl
	mov	al, cl

; 735  : 		}

	mov	esp, ebp
	pop	ebp
	ret	0
?empty@?$deque@PAVValue@Json@@V?$allocator@PAVValue@Json@@@std@@@std@@QBE_NXZ ENDP ; std::deque<Json::Value *,std::allocator<Json::Value *> >::empty
; Function compile flags: /Odtp
; File c:\program files (x86)\microsoft visual studio 9.0\vc\include\xmemory
_TEXT	ENDS
;	COMDAT ?deallocate@?$allocator@VPathArgument@Json@@@std@@QAEXPAVPathArgument@Json@@I@Z
_TEXT	SEGMENT
_this$ = -4						; size = 4
__Ptr$ = 8						; size = 4
___formal$ = 12						; size = 4
?deallocate@?$allocator@VPathArgument@Json@@@std@@QAEXPAVPathArgument@Json@@I@Z PROC ; std::allocator<Json::PathArgument>::deallocate, COMDAT
; _this$ = ecx

; 139  : 		{	// deallocate object at _Ptr, ignore size

	push	ebp
	mov	ebp, esp
	push	ecx
	mov	DWORD PTR _this$[ebp], ecx

; 140  : 		::operator delete(_Ptr);

	mov	eax, DWORD PTR __Ptr$[ebp]
	push	eax
	call	??3@YAXPAX@Z				; operator delete
	add	esp, 4

; 141  : 		}

	mov	esp, ebp
	pop	ebp
	ret	8
?deallocate@?$allocator@VPathArgument@Json@@@std@@QAEXPAVPathArgument@Json@@I@Z ENDP ; std::allocator<Json::PathArgument>::deallocate
; Function compile flags: /Odtp
_TEXT	ENDS
;	COMDAT ??0?$allocator@VPathArgument@Json@@@std@@QAE@ABV01@@Z
_TEXT	SEGMENT
_this$ = -4						; size = 4
___formal$ = 8						; size = 4
??0?$allocator@VPathArgument@Json@@@std@@QAE@ABV01@@Z PROC ; std::allocator<Json::PathArgument>::allocator<Json::PathArgument>, COMDAT
; _this$ = ecx

; 123  : 	allocator(const allocator<_Ty>&) _THROW0()

	push	ebp
	mov	ebp, esp
	push	ecx
	mov	DWORD PTR _this$[ebp], ecx

; 124  : 		{	// construct by copying (do nothing)
; 125  : 		}

	mov	eax, DWORD PTR _this$[ebp]
	mov	esp, ebp
	pop	ebp
	ret	4
??0?$allocator@VPathArgument@Json@@@std@@QAE@ABV01@@Z ENDP ; std::allocator<Json::PathArgument>::allocator<Json::PathArgument>
; Function compile flags: /Odtp
; File c:\program files (x86)\microsoft visual studio 9.0\vc\include\vector
_TEXT	ENDS
;	COMDAT ?size@?$vector@VPathArgument@Json@@V?$allocator@VPathArgument@Json@@@std@@@std@@QBEIXZ
_TEXT	SEGMENT
_this$ = -4						; size = 4
?size@?$vector@VPathArgument@Json@@V?$allocator@VPathArgument@Json@@@std@@@std@@QBEIXZ PROC ; std::vector<Json::PathArgument,std::allocator<Json::PathArgument> >::size, COMDAT
; _this$ = ecx

; 725  : 		{	// return length of sequence

	push	ebp
	mov	ebp, esp
	push	ecx
	mov	DWORD PTR _this$[ebp], ecx

; 726  : 		return (_Mylast - _Myfirst);

	mov	eax, DWORD PTR _this$[ebp]
	mov	ecx, DWORD PTR _this$[ebp]
	mov	eax, DWORD PTR [eax+16]
	sub	eax, DWORD PTR [ecx+12]
	cdq
	mov	ecx, 36					; 00000024H
	idiv	ecx

; 727  : 		}

	mov	esp, ebp
	pop	ebp
	ret	0
?size@?$vector@VPathArgument@Json@@V?$allocator@VPathArgument@Json@@@std@@@std@@QBEIXZ ENDP ; std::vector<Json::PathArgument,std::allocator<Json::PathArgument> >::size
; Function compile flags: /Odtp
_TEXT	ENDS
;	COMDAT ?capacity@?$vector@VPathArgument@Json@@V?$allocator@VPathArgument@Json@@@std@@@std@@QBEIXZ
_TEXT	SEGMENT
tv70 = -8						; size = 4
_this$ = -4						; size = 4
?capacity@?$vector@VPathArgument@Json@@V?$allocator@VPathArgument@Json@@@std@@@std@@QBEIXZ PROC ; std::vector<Json::PathArgument,std::allocator<Json::PathArgument> >::capacity, COMDAT
; _this$ = ecx

; 634  : 		{	// return current length of allocated storage

	push	ebp
	mov	ebp, esp
	sub	esp, 8
	mov	DWORD PTR _this$[ebp], ecx

; 635  : 		return (_Myfirst == 0 ? 0 : _Myend - _Myfirst);

	mov	eax, DWORD PTR _this$[ebp]
	cmp	DWORD PTR [eax+12], 0
	jne	SHORT $LN3@capacity@3
	mov	DWORD PTR tv70[ebp], 0
	jmp	SHORT $LN4@capacity@3
$LN3@capacity@3:
	mov	ecx, DWORD PTR _this$[ebp]
	mov	edx, DWORD PTR _this$[ebp]
	mov	eax, DWORD PTR [ecx+20]
	sub	eax, DWORD PTR [edx+12]
	cdq
	mov	ecx, 36					; 00000024H
	idiv	ecx
	mov	DWORD PTR tv70[ebp], eax
$LN4@capacity@3:
	mov	eax, DWORD PTR tv70[ebp]

; 636  : 		}

	mov	esp, ebp
	pop	ebp
	ret	0
?capacity@?$vector@VPathArgument@Json@@V?$allocator@VPathArgument@Json@@@std@@@std@@QBEIXZ ENDP ; std::vector<Json::PathArgument,std::allocator<Json::PathArgument> >::capacity
; Function compile flags: /Odtp
; File c:\program files (x86)\microsoft visual studio 9.0\vc\include\deque
_TEXT	ENDS
;	COMDAT ?size@?$deque@VErrorInfo@Reader@Json@@V?$allocator@VErrorInfo@Reader@Json@@@std@@@std@@QBEIXZ
_TEXT	SEGMENT
_this$ = -4						; size = 4
?size@?$deque@VErrorInfo@Reader@Json@@V?$allocator@VErrorInfo@Reader@Json@@@std@@@std@@QBEIXZ PROC ; std::deque<Json::Reader::ErrorInfo,std::allocator<Json::Reader::ErrorInfo> >::size, COMDAT
; _this$ = ecx

; 723  : 		{	// return length of sequence

	push	ebp
	mov	ebp, esp
	push	ecx
	mov	DWORD PTR _this$[ebp], ecx

; 724  : 		return (_Mysize);

	mov	eax, DWORD PTR _this$[ebp]
	mov	eax, DWORD PTR [eax+28]

; 725  : 		}

	mov	esp, ebp
	pop	ebp
	ret	0
?size@?$deque@VErrorInfo@Reader@Json@@V?$allocator@VErrorInfo@Reader@Json@@@std@@@std@@QBEIXZ ENDP ; std::deque<Json::Reader::ErrorInfo,std::allocator<Json::Reader::ErrorInfo> >::size
; Function compile flags: /Odtp
; File c:\program files (x86)\microsoft visual studio 9.0\vc\include\stack
_TEXT	ENDS
;	COMDAT ?empty@?$stack@PAVValue@Json@@V?$deque@PAVValue@Json@@V?$allocator@PAVValue@Json@@@std@@@std@@@std@@QBE_NXZ
_TEXT	SEGMENT
_this$ = -4						; size = 4
?empty@?$stack@PAVValue@Json@@V?$deque@PAVValue@Json@@V?$allocator@PAVValue@Json@@@std@@@std@@@std@@QBE_NXZ PROC ; std::stack<Json::Value *,std::deque<Json::Value *,std::allocator<Json::Value *> > >::empty, COMDAT
; _this$ = ecx

; 37   : 		{	// test if stack is empty

	push	ebp
	mov	ebp, esp
	push	ecx
	mov	DWORD PTR _this$[ebp], ecx

; 38   : 		return (c.empty());

	mov	ecx, DWORD PTR _this$[ebp]
	call	?empty@?$deque@PAVValue@Json@@V?$allocator@PAVValue@Json@@@std@@@std@@QBE_NXZ ; std::deque<Json::Value *,std::allocator<Json::Value *> >::empty

; 39   : 		}

	mov	esp, ebp
	pop	ebp
	ret	0
?empty@?$stack@PAVValue@Json@@V?$deque@PAVValue@Json@@V?$allocator@PAVValue@Json@@@std@@@std@@@std@@QBE_NXZ ENDP ; std::stack<Json::Value *,std::deque<Json::Value *,std::allocator<Json::Value *> > >::empty
_TEXT	ENDS
PUBLIC	?getLocationLineAndColumn@Reader@Json@@ABEXPBDAAH1@Z ; Json::Reader::getLocationLineAndColumn
; Function compile flags: /Odtp
; File e:\newggdevelop\client\ggjsoncpp\json_reader.cpp
;	COMDAT ?getLocationLineAndColumn@Reader@Json@@ABEXPBDAAH1@Z
_TEXT	SEGMENT
_this$ = -16						; size = 4
_c$56816 = -9						; size = 1
_lastLineStart$ = -8					; size = 4
_current$ = -4						; size = 4
_location$ = 8						; size = 4
_line$ = 12						; size = 4
_column$ = 16						; size = 4
?getLocationLineAndColumn@Reader@Json@@ABEXPBDAAH1@Z PROC ; Json::Reader::getLocationLineAndColumn, COMDAT
; _this$ = ecx

; 842  : {

	push	ebp
	mov	ebp, esp
	sub	esp, 16					; 00000010H
	mov	DWORD PTR _this$[ebp], ecx

; 843  :    Location current = begin_;

	mov	eax, DWORD PTR _this$[ebp]
	mov	ecx, DWORD PTR [eax+92]
	mov	DWORD PTR _current$[ebp], ecx

; 844  :    Location lastLineStart = current;

	mov	edx, DWORD PTR _current$[ebp]
	mov	DWORD PTR _lastLineStart$[ebp], edx

; 845  :    line = 0;

	mov	eax, DWORD PTR _line$[ebp]
	mov	DWORD PTR [eax], 0
$LN6@getLocatio:

; 846  :    while ( current < location  &&  current != end_ )

	mov	ecx, DWORD PTR _current$[ebp]
	cmp	ecx, DWORD PTR _location$[ebp]
	jae	SHORT $LN5@getLocatio
	mov	edx, DWORD PTR _this$[ebp]
	mov	eax, DWORD PTR _current$[ebp]
	cmp	eax, DWORD PTR [edx+96]
	je	SHORT $LN5@getLocatio

; 847  :    {
; 848  :       Char c = *current++;

	mov	ecx, DWORD PTR _current$[ebp]
	mov	dl, BYTE PTR [ecx]
	mov	BYTE PTR _c$56816[ebp], dl
	mov	eax, DWORD PTR _current$[ebp]
	add	eax, 1
	mov	DWORD PTR _current$[ebp], eax

; 849  :       if ( c == '\r' )

	movsx	ecx, BYTE PTR _c$56816[ebp]
	cmp	ecx, 13					; 0000000dH
	jne	SHORT $LN4@getLocatio

; 850  :       {
; 851  :          if ( *current == '\n' )

	mov	edx, DWORD PTR _current$[ebp]
	movsx	eax, BYTE PTR [edx]
	cmp	eax, 10					; 0000000aH
	jne	SHORT $LN3@getLocatio

; 852  :             ++current;

	mov	ecx, DWORD PTR _current$[ebp]
	add	ecx, 1
	mov	DWORD PTR _current$[ebp], ecx
$LN3@getLocatio:

; 853  :          lastLineStart = current;

	mov	edx, DWORD PTR _current$[ebp]
	mov	DWORD PTR _lastLineStart$[ebp], edx

; 854  :          ++line;

	mov	eax, DWORD PTR _line$[ebp]
	mov	ecx, DWORD PTR [eax]
	add	ecx, 1
	mov	edx, DWORD PTR _line$[ebp]
	mov	DWORD PTR [edx], ecx
	jmp	SHORT $LN2@getLocatio
$LN4@getLocatio:

; 855  :       }
; 856  :       else if ( c == '\n' )

	movsx	eax, BYTE PTR _c$56816[ebp]
	cmp	eax, 10					; 0000000aH
	jne	SHORT $LN2@getLocatio

; 857  :       {
; 858  :          lastLineStart = current;

	mov	ecx, DWORD PTR _current$[ebp]
	mov	DWORD PTR _lastLineStart$[ebp], ecx

; 859  :          ++line;

	mov	edx, DWORD PTR _line$[ebp]
	mov	eax, DWORD PTR [edx]
	add	eax, 1
	mov	ecx, DWORD PTR _line$[ebp]
	mov	DWORD PTR [ecx], eax
$LN2@getLocatio:

; 860  :       }
; 861  :    }

	jmp	SHORT $LN6@getLocatio
$LN5@getLocatio:

; 862  :    // column & line start at 1
; 863  :    column = int(location - lastLineStart) + 1;

	mov	edx, DWORD PTR _location$[ebp]
	sub	edx, DWORD PTR _lastLineStart$[ebp]
	add	edx, 1
	mov	eax, DWORD PTR _column$[ebp]
	mov	DWORD PTR [eax], edx

; 864  :    ++line;

	mov	ecx, DWORD PTR _line$[ebp]
	mov	edx, DWORD PTR [ecx]
	add	edx, 1
	mov	eax, DWORD PTR _line$[ebp]
	mov	DWORD PTR [eax], edx

; 865  : }

	mov	esp, ebp
	pop	ebp
	ret	12					; 0000000cH
?getLocationLineAndColumn@Reader@Json@@ABEXPBDAAH1@Z ENDP ; Json::Reader::getLocationLineAndColumn
_TEXT	ENDS
PUBLIC	?getNextChar@Reader@Json@@AAEDXZ		; Json::Reader::getNextChar
; Function compile flags: /Odtp
;	COMDAT ?getNextChar@Reader@Json@@AAEDXZ
_TEXT	SEGMENT
tv72 = -5						; size = 1
_this$ = -4						; size = 4
?getNextChar@Reader@Json@@AAEDXZ PROC			; Json::Reader::getNextChar, COMDAT
; _this$ = ecx

; 831  : {

	push	ebp
	mov	ebp, esp
	sub	esp, 8
	mov	DWORD PTR _this$[ebp], ecx

; 832  :    if ( current_ == end_ )

	mov	eax, DWORD PTR _this$[ebp]
	mov	ecx, DWORD PTR _this$[ebp]
	mov	edx, DWORD PTR [eax+100]
	cmp	edx, DWORD PTR [ecx+96]
	jne	SHORT $LN1@getNextCha

; 833  :       return 0;

	xor	al, al
	jmp	SHORT $LN2@getNextCha
$LN1@getNextCha:

; 834  :    return *current_++;

	mov	eax, DWORD PTR _this$[ebp]
	mov	ecx, DWORD PTR [eax+100]
	mov	dl, BYTE PTR [ecx]
	mov	BYTE PTR tv72[ebp], dl
	mov	eax, DWORD PTR _this$[ebp]
	mov	ecx, DWORD PTR [eax+100]
	add	ecx, 1
	mov	edx, DWORD PTR _this$[ebp]
	mov	DWORD PTR [edx+100], ecx
	mov	al, BYTE PTR tv72[ebp]
$LN2@getNextCha:

; 835  : }

	mov	esp, ebp
	pop	ebp
	ret	0
?getNextChar@Reader@Json@@AAEDXZ ENDP			; Json::Reader::getNextChar
; Function compile flags: /Odtp
_TEXT	ENDS
;	COMDAT ??1ErrorInfo@Reader@Json@@QAE@XZ
_TEXT	SEGMENT
_this$ = -4						; size = 4
??1ErrorInfo@Reader@Json@@QAE@XZ PROC			; Json::Reader::ErrorInfo::~ErrorInfo, COMDAT
; _this$ = ecx
	push	ebp
	mov	ebp, esp
	push	ecx
	mov	DWORD PTR _this$[ebp], ecx
	mov	ecx, DWORD PTR _this$[ebp]
	add	ecx, 12					; 0000000cH
	call	DWORD PTR __imp_??1?$basic_string@DU?$char_traits@D@std@@V?$allocator@D@2@@std@@QAE@XZ
	mov	esp, ebp
	pop	ebp
	ret	0
??1ErrorInfo@Reader@Json@@QAE@XZ ENDP			; Json::Reader::ErrorInfo::~ErrorInfo
; Function compile flags: /Odtp
_TEXT	ENDS
;	COMDAT ??0ErrorInfo@Reader@Json@@QAE@XZ
_TEXT	SEGMENT
_this$ = -4						; size = 4
??0ErrorInfo@Reader@Json@@QAE@XZ PROC			; Json::Reader::ErrorInfo::ErrorInfo, COMDAT
; _this$ = ecx
	push	ebp
	mov	ebp, esp
	push	ecx
	mov	DWORD PTR _this$[ebp], ecx
	mov	ecx, DWORD PTR _this$[ebp]
	add	ecx, 12					; 0000000cH
	call	DWORD PTR __imp_??0?$basic_string@DU?$char_traits@D@std@@V?$allocator@D@2@@std@@QAE@XZ
	mov	eax, DWORD PTR _this$[ebp]
	mov	esp, ebp
	pop	ebp
	ret	0
??0ErrorInfo@Reader@Json@@QAE@XZ ENDP			; Json::Reader::ErrorInfo::ErrorInfo
_TEXT	ENDS
PUBLIC	?readString@Reader@Json@@AAE_NXZ		; Json::Reader::readString
; Function compile flags: /Odtp
;	COMDAT ?readString@Reader@Json@@AAE_NXZ
_TEXT	SEGMENT
_this$ = -8						; size = 4
_c$ = -1						; size = 1
?readString@Reader@Json@@AAE_NXZ PROC			; Json::Reader::readString, COMDAT
; _this$ = ecx

; 456  : {

	push	ebp
	mov	ebp, esp
	sub	esp, 8
	mov	DWORD PTR _this$[ebp], ecx

; 457  :    Char c = 0;

	mov	BYTE PTR _c$[ebp], 0
$LN5@readString:

; 458  :    while ( current_ != end_ )

	mov	eax, DWORD PTR _this$[ebp]
	mov	ecx, DWORD PTR _this$[ebp]
	mov	edx, DWORD PTR [eax+100]
	cmp	edx, DWORD PTR [ecx+96]
	je	SHORT $LN4@readString

; 459  :    {
; 460  :       c = getNextChar();

	mov	ecx, DWORD PTR _this$[ebp]
	call	?getNextChar@Reader@Json@@AAEDXZ	; Json::Reader::getNextChar
	mov	BYTE PTR _c$[ebp], al

; 461  :       if ( c == '\\' )

	movsx	eax, BYTE PTR _c$[ebp]
	cmp	eax, 92					; 0000005cH
	jne	SHORT $LN3@readString

; 462  :          getNextChar();

	mov	ecx, DWORD PTR _this$[ebp]
	call	?getNextChar@Reader@Json@@AAEDXZ	; Json::Reader::getNextChar
	jmp	SHORT $LN2@readString
$LN3@readString:

; 463  :       else if ( c == '"' )

	movsx	ecx, BYTE PTR _c$[ebp]
	cmp	ecx, 34					; 00000022H
	jne	SHORT $LN2@readString

; 464  :          break;

	jmp	SHORT $LN4@readString
$LN2@readString:

; 465  :    }

	jmp	SHORT $LN5@readString
$LN4@readString:

; 466  :    return c == '"';

	movsx	edx, BYTE PTR _c$[ebp]
	xor	eax, eax
	cmp	edx, 34					; 00000022H
	sete	al

; 467  : }

	mov	esp, ebp
	pop	ebp
	ret	0
?readString@Reader@Json@@AAE_NXZ ENDP			; Json::Reader::readString
_TEXT	ENDS
PUBLIC	?readCppStyleComment@Reader@Json@@AAE_NXZ	; Json::Reader::readCppStyleComment
; Function compile flags: /Odtp
;	COMDAT ?readCppStyleComment@Reader@Json@@AAE_NXZ
_TEXT	SEGMENT
_this$ = -8						; size = 4
_c$56520 = -1						; size = 1
?readCppStyleComment@Reader@Json@@AAE_NXZ PROC		; Json::Reader::readCppStyleComment, COMDAT
; _this$ = ecx

; 431  : {

	push	ebp
	mov	ebp, esp
	sub	esp, 8
	mov	DWORD PTR _this$[ebp], ecx
$LN4@readCppSty:

; 432  :    while ( current_ != end_ )

	mov	eax, DWORD PTR _this$[ebp]
	mov	ecx, DWORD PTR _this$[ebp]
	mov	edx, DWORD PTR [eax+100]
	cmp	edx, DWORD PTR [ecx+96]
	je	SHORT $LN3@readCppSty

; 433  :    {
; 434  :       Char c = getNextChar();

	mov	ecx, DWORD PTR _this$[ebp]
	call	?getNextChar@Reader@Json@@AAEDXZ	; Json::Reader::getNextChar
	mov	BYTE PTR _c$56520[ebp], al

; 435  :       if (  c == '\r'  ||  c == '\n' )

	movsx	eax, BYTE PTR _c$56520[ebp]
	cmp	eax, 13					; 0000000dH
	je	SHORT $LN1@readCppSty
	movsx	ecx, BYTE PTR _c$56520[ebp]
	cmp	ecx, 10					; 0000000aH
	jne	SHORT $LN2@readCppSty
$LN1@readCppSty:

; 436  :          break;

	jmp	SHORT $LN3@readCppSty
$LN2@readCppSty:

; 437  :    }

	jmp	SHORT $LN4@readCppSty
$LN3@readCppSty:

; 438  :    return true;

	mov	al, 1

; 439  : }

	mov	esp, ebp
	pop	ebp
	ret	0
?readCppStyleComment@Reader@Json@@AAE_NXZ ENDP		; Json::Reader::readCppStyleComment
_TEXT	ENDS
PUBLIC	?readCStyleComment@Reader@Json@@AAE_NXZ		; Json::Reader::readCStyleComment
; Function compile flags: /Odtp
;	COMDAT ?readCStyleComment@Reader@Json@@AAE_NXZ
_TEXT	SEGMENT
_this$ = -8						; size = 4
_c$56512 = -1						; size = 1
?readCStyleComment@Reader@Json@@AAE_NXZ PROC		; Json::Reader::readCStyleComment, COMDAT
; _this$ = ecx

; 418  : {

	push	ebp
	mov	ebp, esp
	sub	esp, 8
	mov	DWORD PTR _this$[ebp], ecx
$LN3@readCStyle:

; 419  :    while ( current_ != end_ )

	mov	eax, DWORD PTR _this$[ebp]
	mov	ecx, DWORD PTR _this$[ebp]
	mov	edx, DWORD PTR [eax+100]
	cmp	edx, DWORD PTR [ecx+96]
	je	SHORT $LN2@readCStyle

; 420  :    {
; 421  :       Char c = getNextChar();

	mov	ecx, DWORD PTR _this$[ebp]
	call	?getNextChar@Reader@Json@@AAEDXZ	; Json::Reader::getNextChar
	mov	BYTE PTR _c$56512[ebp], al

; 422  :       if ( c == '*'  &&  *current_ == '/' )

	movsx	eax, BYTE PTR _c$56512[ebp]
	cmp	eax, 42					; 0000002aH
	jne	SHORT $LN1@readCStyle
	mov	ecx, DWORD PTR _this$[ebp]
	mov	edx, DWORD PTR [ecx+100]
	movsx	eax, BYTE PTR [edx]
	cmp	eax, 47					; 0000002fH
	jne	SHORT $LN1@readCStyle

; 423  :          break;

	jmp	SHORT $LN2@readCStyle
$LN1@readCStyle:

; 424  :    }

	jmp	SHORT $LN3@readCStyle
$LN2@readCStyle:

; 425  :    return getNextChar() == '/';

	mov	ecx, DWORD PTR _this$[ebp]
	call	?getNextChar@Reader@Json@@AAEDXZ	; Json::Reader::getNextChar
	movsx	ecx, al
	xor	eax, eax
	cmp	ecx, 47					; 0000002fH
	sete	al

; 426  : }

	mov	esp, ebp
	pop	ebp
	ret	0
?readCStyleComment@Reader@Json@@AAE_NXZ ENDP		; Json::Reader::readCStyleComment
_TEXT	ENDS
PUBLIC	?match@Reader@Json@@AAE_NPBDH@Z			; Json::Reader::match
; Function compile flags: /Odtp
;	COMDAT ?match@Reader@Json@@AAE_NPBDH@Z
_TEXT	SEGMENT
_this$ = -8						; size = 4
_index$ = -4						; size = 4
_pattern$ = 8						; size = 4
_patternLength$ = 12					; size = 4
?match@Reader@Json@@AAE_NPBDH@Z PROC			; Json::Reader::match, COMDAT
; _this$ = ecx

; 356  : {

	push	ebp
	mov	ebp, esp
	sub	esp, 8
	mov	DWORD PTR _this$[ebp], ecx

; 357  :    if ( end_ - current_ < patternLength )

	mov	eax, DWORD PTR _this$[ebp]
	mov	ecx, DWORD PTR _this$[ebp]
	mov	edx, DWORD PTR [eax+96]
	sub	edx, DWORD PTR [ecx+100]
	cmp	edx, DWORD PTR _patternLength$[ebp]
	jge	SHORT $LN4@match

; 358  :       return false;

	xor	al, al
	jmp	SHORT $LN5@match
$LN4@match:

; 359  :    int index = patternLength;

	mov	eax, DWORD PTR _patternLength$[ebp]
	mov	DWORD PTR _index$[ebp], eax
$LN3@match:

; 360  :    while ( index-- )

	mov	ecx, DWORD PTR _index$[ebp]
	mov	edx, DWORD PTR _index$[ebp]
	sub	edx, 1
	mov	DWORD PTR _index$[ebp], edx
	test	ecx, ecx
	je	SHORT $LN2@match

; 361  :       if ( current_[index] != pattern[index] )

	mov	eax, DWORD PTR _this$[ebp]
	mov	ecx, DWORD PTR [eax+100]
	mov	edx, DWORD PTR _index$[ebp]
	movsx	eax, BYTE PTR [ecx+edx]
	mov	ecx, DWORD PTR _pattern$[ebp]
	add	ecx, DWORD PTR _index$[ebp]
	movsx	edx, BYTE PTR [ecx]
	cmp	eax, edx
	je	SHORT $LN1@match

; 362  :          return false;

	xor	al, al
	jmp	SHORT $LN5@match
$LN1@match:

; 363  :    current_ += patternLength;

	jmp	SHORT $LN3@match
$LN2@match:
	mov	eax, DWORD PTR _this$[ebp]
	mov	ecx, DWORD PTR [eax+100]
	add	ecx, DWORD PTR _patternLength$[ebp]
	mov	edx, DWORD PTR _this$[ebp]
	mov	DWORD PTR [edx+100], ecx

; 364  :    return true;

	mov	al, 1
$LN5@match:

; 365  : }

	mov	esp, ebp
	pop	ebp
	ret	8
?match@Reader@Json@@AAE_NPBDH@Z ENDP			; Json::Reader::match
_TEXT	ENDS
PUBLIC	?skipSpaces@Reader@Json@@AAEXXZ			; Json::Reader::skipSpaces
; Function compile flags: /Odtp
;	COMDAT ?skipSpaces@Reader@Json@@AAEXXZ
_TEXT	SEGMENT
_this$ = -8						; size = 4
_c$56368 = -1						; size = 1
?skipSpaces@Reader@Json@@AAEXXZ PROC			; Json::Reader::skipSpaces, COMDAT
; _this$ = ecx

; 341  : {

	push	ebp
	mov	ebp, esp
	sub	esp, 8
	mov	DWORD PTR _this$[ebp], ecx
$LN5@skipSpaces:

; 342  :    while ( current_ != end_ )

	mov	eax, DWORD PTR _this$[ebp]
	mov	ecx, DWORD PTR _this$[ebp]
	mov	edx, DWORD PTR [eax+100]
	cmp	edx, DWORD PTR [ecx+96]
	je	SHORT $LN6@skipSpaces

; 343  :    {
; 344  :       Char c = *current_;

	mov	eax, DWORD PTR _this$[ebp]
	mov	ecx, DWORD PTR [eax+100]
	mov	dl, BYTE PTR [ecx]
	mov	BYTE PTR _c$56368[ebp], dl

; 345  :       if ( c == ' '  ||  c == '\t'  ||  c == '\r'  ||  c == '\n' )

	movsx	eax, BYTE PTR _c$56368[ebp]
	cmp	eax, 32					; 00000020H
	je	SHORT $LN2@skipSpaces
	movsx	ecx, BYTE PTR _c$56368[ebp]
	cmp	ecx, 9
	je	SHORT $LN2@skipSpaces
	movsx	edx, BYTE PTR _c$56368[ebp]
	cmp	edx, 13					; 0000000dH
	je	SHORT $LN2@skipSpaces
	movsx	eax, BYTE PTR _c$56368[ebp]
	cmp	eax, 10					; 0000000aH
	jne	SHORT $LN3@skipSpaces
$LN2@skipSpaces:

; 346  :          ++current_;

	mov	ecx, DWORD PTR _this$[ebp]
	mov	edx, DWORD PTR [ecx+100]
	add	edx, 1
	mov	eax, DWORD PTR _this$[ebp]
	mov	DWORD PTR [eax+100], edx

; 347  :       else

	jmp	SHORT $LN1@skipSpaces
$LN3@skipSpaces:

; 348  :          break;

	jmp	SHORT $LN6@skipSpaces
$LN1@skipSpaces:

; 349  :    }

	jmp	SHORT $LN5@skipSpaces
$LN6@skipSpaces:

; 350  : }

	mov	esp, ebp
	pop	ebp
	ret	0
?skipSpaces@Reader@Json@@AAEXXZ ENDP			; Json::Reader::skipSpaces
; Function compile flags: /Odtp
_TEXT	ENDS
;	COMDAT ?containsNewLine@Json@@YA_NPBD0@Z
_TEXT	SEGMENT
_begin$ = 8						; size = 4
_end$ = 12						; size = 4
?containsNewLine@Json@@YA_NPBD0@Z PROC			; Json::containsNewLine, COMDAT

; 71   : {

	push	ebp
	mov	ebp, esp

; 72   :    for ( ;begin < end; ++begin )

	jmp	SHORT $LN5@containsNe
$LN4@containsNe:
	mov	eax, DWORD PTR _begin$[ebp]
	add	eax, 1
	mov	DWORD PTR _begin$[ebp], eax
$LN5@containsNe:
	mov	ecx, DWORD PTR _begin$[ebp]
	cmp	ecx, DWORD PTR _end$[ebp]
	jae	SHORT $LN3@containsNe

; 73   :       if ( *begin == '\n'  ||  *begin == '\r' )

	mov	edx, DWORD PTR _begin$[ebp]
	movsx	eax, BYTE PTR [edx]
	cmp	eax, 10					; 0000000aH
	je	SHORT $LN1@containsNe
	mov	ecx, DWORD PTR _begin$[ebp]
	movsx	edx, BYTE PTR [ecx]
	cmp	edx, 13					; 0000000dH
	jne	SHORT $LN2@containsNe
$LN1@containsNe:

; 74   :          return true;

	mov	al, 1
	jmp	SHORT $LN6@containsNe
$LN2@containsNe:

; 75   :    return false;

	jmp	SHORT $LN4@containsNe
$LN3@containsNe:
	xor	al, al
$LN6@containsNe:

; 76   : }

	pop	ebp
	ret	0
?containsNewLine@Json@@YA_NPBD0@Z ENDP			; Json::containsNewLine
; Function compile flags: /Odtp
_TEXT	ENDS
;	COMDAT ?in@Json@@YA_NDDDDDD@Z
_TEXT	SEGMENT
tv79 = -4						; size = 4
_c$ = 8							; size = 1
_c1$ = 12						; size = 1
_c2$ = 16						; size = 1
_c3$ = 20						; size = 1
_c4$ = 24						; size = 1
_c5$ = 28						; size = 1
?in@Json@@YA_NDDDDDD@Z PROC				; Json::in, COMDAT

; 63   : {

	push	ebp
	mov	ebp, esp
	push	ecx

; 64   :    return c == c1  ||  c == c2  ||  c == c3  ||  c == c4  ||  c == c5;

	movsx	eax, BYTE PTR _c$[ebp]
	movsx	ecx, BYTE PTR _c1$[ebp]
	cmp	eax, ecx
	je	SHORT $LN3@in
	movsx	edx, BYTE PTR _c$[ebp]
	movsx	eax, BYTE PTR _c2$[ebp]
	cmp	edx, eax
	je	SHORT $LN3@in
	movsx	ecx, BYTE PTR _c$[ebp]
	movsx	edx, BYTE PTR _c3$[ebp]
	cmp	ecx, edx
	je	SHORT $LN3@in
	movsx	eax, BYTE PTR _c$[ebp]
	movsx	ecx, BYTE PTR _c4$[ebp]
	cmp	eax, ecx
	je	SHORT $LN3@in
	movsx	edx, BYTE PTR _c$[ebp]
	movsx	eax, BYTE PTR _c5$[ebp]
	cmp	edx, eax
	je	SHORT $LN3@in
	mov	DWORD PTR tv79[ebp], 0
	jmp	SHORT $LN4@in
$LN3@in:
	mov	DWORD PTR tv79[ebp], 1
$LN4@in:
	mov	al, BYTE PTR tv79[ebp]

; 65   : }

	mov	esp, ebp
	pop	ebp
	ret	0
?in@Json@@YA_NDDDDDD@Z ENDP				; Json::in
; Function compile flags: /Odtp
_TEXT	ENDS
;	COMDAT ?in@Json@@YA_NDDDDD@Z
_TEXT	SEGMENT
tv76 = -4						; size = 4
_c$ = 8							; size = 1
_c1$ = 12						; size = 1
_c2$ = 16						; size = 1
_c3$ = 20						; size = 1
_c4$ = 24						; size = 1
?in@Json@@YA_NDDDDD@Z PROC				; Json::in, COMDAT

; 57   : {

	push	ebp
	mov	ebp, esp
	push	ecx

; 58   :    return c == c1  ||  c == c2  ||  c == c3  ||  c == c4;

	movsx	eax, BYTE PTR _c$[ebp]
	movsx	ecx, BYTE PTR _c1$[ebp]
	cmp	eax, ecx
	je	SHORT $LN3@in@2
	movsx	edx, BYTE PTR _c$[ebp]
	movsx	eax, BYTE PTR _c2$[ebp]
	cmp	edx, eax
	je	SHORT $LN3@in@2
	movsx	ecx, BYTE PTR _c$[ebp]
	movsx	edx, BYTE PTR _c3$[ebp]
	cmp	ecx, edx
	je	SHORT $LN3@in@2
	movsx	eax, BYTE PTR _c$[ebp]
	movsx	ecx, BYTE PTR _c4$[ebp]
	cmp	eax, ecx
	je	SHORT $LN3@in@2
	mov	DWORD PTR tv76[ebp], 0
	jmp	SHORT $LN4@in@2
$LN3@in@2:
	mov	DWORD PTR tv76[ebp], 1
$LN4@in@2:
	mov	al, BYTE PTR tv76[ebp]

; 59   : }

	mov	esp, ebp
	pop	ebp
	ret	0
?in@Json@@YA_NDDDDD@Z ENDP				; Json::in
_TEXT	ENDS
PUBLIC	??0Features@Json@@QAE@XZ			; Json::Features::Features
; Function compile flags: /Odtp
;	COMDAT ??0Features@Json@@QAE@XZ
_TEXT	SEGMENT
_this$ = -4						; size = 4
??0Features@Json@@QAE@XZ PROC				; Json::Features::Features, COMDAT
; _this$ = ecx

; 31   : {

	push	ebp
	mov	ebp, esp
	push	ecx
	mov	DWORD PTR _this$[ebp], ecx
	mov	eax, DWORD PTR _this$[ebp]
	mov	BYTE PTR [eax], 1
	mov	ecx, DWORD PTR _this$[ebp]
	mov	BYTE PTR [ecx+1], 0

; 32   : }

	mov	eax, DWORD PTR _this$[ebp]
	mov	esp, ebp
	pop	ebp
	ret	0
??0Features@Json@@QAE@XZ ENDP				; Json::Features::Features
_TEXT	ENDS
PUBLIC	__$ArrayPad$
;	COMDAT xdata$x
; File e:\newggdevelop\client\ggjsoncpp\json_tool.h
xdata$x	SEGMENT
__unwindtable$?codePointToUTF8@Json@@YA?AV?$basic_string@DU?$char_traits@D@std@@V?$allocator@D@2@@std@@I@Z DD 0ffffffffH
	DD	FLAT:__unwindfunclet$?codePointToUTF8@Json@@YA?AV?$basic_string@DU?$char_traits@D@std@@V?$allocator@D@2@@std@@I@Z$1
	DD	00H
	DD	FLAT:__unwindfunclet$?codePointToUTF8@Json@@YA?AV?$basic_string@DU?$char_traits@D@std@@V?$allocator@D@2@@std@@I@Z$0
__ehfuncinfo$?codePointToUTF8@Json@@YA?AV?$basic_string@DU?$char_traits@D@std@@V?$allocator@D@2@@std@@I@Z DD 019930522H
	DD	02H
	DD	FLAT:__unwindtable$?codePointToUTF8@Json@@YA?AV?$basic_string@DU?$char_traits@D@std@@V?$allocator@D@2@@std@@I@Z
	DD	2 DUP(00H)
	DD	2 DUP(00H)
	DD	00H
	DD	01H
; Function compile flags: /Odtp
xdata$x	ENDS
;	COMDAT ?codePointToUTF8@Json@@YA?AV?$basic_string@DU?$char_traits@D@std@@V?$allocator@D@2@@std@@I@Z
_TEXT	SEGMENT
$T75728 = -48						; size = 4
_result$ = -44						; size = 28
__$ArrayPad$ = -16					; size = 4
__$EHRec$ = -12						; size = 12
___$ReturnUdt$ = 8					; size = 4
_cp$ = 12						; size = 4
?codePointToUTF8@Json@@YA?AV?$basic_string@DU?$char_traits@D@std@@V?$allocator@D@2@@std@@I@Z PROC ; Json::codePointToUTF8, COMDAT

; 20   : {

	push	ebp
	mov	ebp, esp
	push	-1
	push	__ehhandler$?codePointToUTF8@Json@@YA?AV?$basic_string@DU?$char_traits@D@std@@V?$allocator@D@2@@std@@I@Z
	mov	eax, DWORD PTR fs:0
	push	eax
	sub	esp, 36					; 00000024H
	mov	eax, DWORD PTR ___security_cookie
	xor	eax, ebp
	mov	DWORD PTR __$ArrayPad$[ebp], eax
	push	ebx
	push	eax
	lea	eax, DWORD PTR __$EHRec$[ebp]
	mov	DWORD PTR fs:0, eax
	mov	DWORD PTR $T75728[ebp], 0

; 21   :    std::string result;

	lea	ecx, DWORD PTR _result$[ebp]
	call	DWORD PTR __imp_??0?$basic_string@DU?$char_traits@D@std@@V?$allocator@D@2@@std@@QAE@XZ
	mov	DWORD PTR __$EHRec$[ebp+8], 1

; 22   :    
; 23   :    // based on description from http://en.wikipedia.org/wiki/UTF-8
; 24   : 
; 25   :    if (cp <= 0x7f) 

	cmp	DWORD PTR _cp$[ebp], 127		; 0000007fH
	ja	SHORT $LN7@codePointT

; 26   :    {
; 27   :       result.resize(1);

	push	1
	lea	ecx, DWORD PTR _result$[ebp]
	call	DWORD PTR __imp_?resize@?$basic_string@DU?$char_traits@D@std@@V?$allocator@D@2@@std@@QAEXI@Z

; 28   :       result[0] = static_cast<char>(cp);

	push	0
	lea	ecx, DWORD PTR _result$[ebp]
	call	DWORD PTR __imp_??A?$basic_string@DU?$char_traits@D@std@@V?$allocator@D@2@@std@@QAEAADI@Z
	mov	cl, BYTE PTR _cp$[ebp]
	mov	BYTE PTR [eax], cl
	jmp	$LN6@codePointT
$LN7@codePointT:

; 29   :    } 
; 30   :    else if (cp <= 0x7FF) 

	cmp	DWORD PTR _cp$[ebp], 2047		; 000007ffH
	ja	SHORT $LN5@codePointT

; 31   :    {
; 32   :       result.resize(2);

	push	2
	lea	ecx, DWORD PTR _result$[ebp]
	call	DWORD PTR __imp_?resize@?$basic_string@DU?$char_traits@D@std@@V?$allocator@D@2@@std@@QAEXI@Z

; 33   :       result[1] = static_cast<char>(0x80 | (0x3f & cp));

	mov	ebx, DWORD PTR _cp$[ebp]
	and	ebx, 63					; 0000003fH
	or	ebx, 128				; 00000080H
	push	1
	lea	ecx, DWORD PTR _result$[ebp]
	call	DWORD PTR __imp_??A?$basic_string@DU?$char_traits@D@std@@V?$allocator@D@2@@std@@QAEAADI@Z
	mov	BYTE PTR [eax], bl

; 34   :       result[0] = static_cast<char>(0xC0 | (0x1f & (cp >> 6)));

	mov	ebx, DWORD PTR _cp$[ebp]
	shr	ebx, 6
	and	ebx, 31					; 0000001fH
	or	ebx, 192				; 000000c0H
	push	0
	lea	ecx, DWORD PTR _result$[ebp]
	call	DWORD PTR __imp_??A?$basic_string@DU?$char_traits@D@std@@V?$allocator@D@2@@std@@QAEAADI@Z
	mov	BYTE PTR [eax], bl
	jmp	$LN6@codePointT
$LN5@codePointT:

; 35   :    } 
; 36   :    else if (cp <= 0xFFFF) 

	cmp	DWORD PTR _cp$[ebp], 65535		; 0000ffffH
	ja	SHORT $LN3@codePointT

; 37   :    {
; 38   :       result.resize(3);

	push	3
	lea	ecx, DWORD PTR _result$[ebp]
	call	DWORD PTR __imp_?resize@?$basic_string@DU?$char_traits@D@std@@V?$allocator@D@2@@std@@QAEXI@Z

; 39   :       result[2] = static_cast<char>(0x80 | (0x3f & cp));

	mov	ebx, DWORD PTR _cp$[ebp]
	and	ebx, 63					; 0000003fH
	or	ebx, 128				; 00000080H
	push	2
	lea	ecx, DWORD PTR _result$[ebp]
	call	DWORD PTR __imp_??A?$basic_string@DU?$char_traits@D@std@@V?$allocator@D@2@@std@@QAEAADI@Z
	mov	BYTE PTR [eax], bl

; 40   :       result[1] = 0x80 | static_cast<char>((0x3f & (cp >> 6)));

	mov	edx, DWORD PTR _cp$[ebp]
	shr	edx, 6
	and	edx, 63					; 0000003fH
	movsx	ebx, dl
	or	ebx, 128				; 00000080H
	push	1
	lea	ecx, DWORD PTR _result$[ebp]
	call	DWORD PTR __imp_??A?$basic_string@DU?$char_traits@D@std@@V?$allocator@D@2@@std@@QAEAADI@Z
	mov	BYTE PTR [eax], bl

; 41   :       result[0] = 0xE0 | static_cast<char>((0xf & (cp >> 12)));

	mov	eax, DWORD PTR _cp$[ebp]
	shr	eax, 12					; 0000000cH
	and	eax, 15					; 0000000fH
	movsx	ebx, al
	or	ebx, 224				; 000000e0H
	push	0
	lea	ecx, DWORD PTR _result$[ebp]
	call	DWORD PTR __imp_??A?$basic_string@DU?$char_traits@D@std@@V?$allocator@D@2@@std@@QAEAADI@Z
	mov	BYTE PTR [eax], bl
	jmp	$LN6@codePointT
$LN3@codePointT:

; 42   :    }
; 43   :    else if (cp <= 0x10FFFF) 

	cmp	DWORD PTR _cp$[ebp], 1114111		; 0010ffffH
	ja	SHORT $LN6@codePointT

; 44   :    {
; 45   :       result.resize(4);

	push	4
	lea	ecx, DWORD PTR _result$[ebp]
	call	DWORD PTR __imp_?resize@?$basic_string@DU?$char_traits@D@std@@V?$allocator@D@2@@std@@QAEXI@Z

; 46   :       result[3] = static_cast<char>(0x80 | (0x3f & cp));

	mov	ebx, DWORD PTR _cp$[ebp]
	and	ebx, 63					; 0000003fH
	or	ebx, 128				; 00000080H
	push	3
	lea	ecx, DWORD PTR _result$[ebp]
	call	DWORD PTR __imp_??A?$basic_string@DU?$char_traits@D@std@@V?$allocator@D@2@@std@@QAEAADI@Z
	mov	BYTE PTR [eax], bl

; 47   :       result[2] = static_cast<char>(0x80 | (0x3f & (cp >> 6)));

	mov	ebx, DWORD PTR _cp$[ebp]
	shr	ebx, 6
	and	ebx, 63					; 0000003fH
	or	ebx, 128				; 00000080H
	push	2
	lea	ecx, DWORD PTR _result$[ebp]
	call	DWORD PTR __imp_??A?$basic_string@DU?$char_traits@D@std@@V?$allocator@D@2@@std@@QAEAADI@Z
	mov	BYTE PTR [eax], bl

; 48   :       result[1] = static_cast<char>(0x80 | (0x3f & (cp >> 12)));

	mov	ebx, DWORD PTR _cp$[ebp]
	shr	ebx, 12					; 0000000cH
	and	ebx, 63					; 0000003fH
	or	ebx, 128				; 00000080H
	push	1
	lea	ecx, DWORD PTR _result$[ebp]
	call	DWORD PTR __imp_??A?$basic_string@DU?$char_traits@D@std@@V?$allocator@D@2@@std@@QAEAADI@Z
	mov	BYTE PTR [eax], bl

; 49   :       result[0] = static_cast<char>(0xF0 | (0x7 & (cp >> 18)));

	mov	ebx, DWORD PTR _cp$[ebp]
	shr	ebx, 18					; 00000012H
	and	ebx, 7
	or	ebx, 240				; 000000f0H
	push	0
	lea	ecx, DWORD PTR _result$[ebp]
	call	DWORD PTR __imp_??A?$basic_string@DU?$char_traits@D@std@@V?$allocator@D@2@@std@@QAEAADI@Z
	mov	BYTE PTR [eax], bl
$LN6@codePointT:

; 50   :    }
; 51   : 
; 52   :    return result;

	lea	ecx, DWORD PTR _result$[ebp]
	push	ecx
	mov	ecx, DWORD PTR ___$ReturnUdt$[ebp]
	call	DWORD PTR __imp_??0?$basic_string@DU?$char_traits@D@std@@V?$allocator@D@2@@std@@QAE@ABV01@@Z
	mov	edx, DWORD PTR $T75728[ebp]
	or	edx, 1
	mov	DWORD PTR $T75728[ebp], edx
	mov	BYTE PTR __$EHRec$[ebp+8], 0
	lea	ecx, DWORD PTR _result$[ebp]
	call	DWORD PTR __imp_??1?$basic_string@DU?$char_traits@D@std@@V?$allocator@D@2@@std@@QAE@XZ
	mov	eax, DWORD PTR ___$ReturnUdt$[ebp]

; 53   : }

	mov	ecx, DWORD PTR __$EHRec$[ebp]
	mov	DWORD PTR fs:0, ecx
	pop	ecx
	pop	ebx
	mov	ecx, DWORD PTR __$ArrayPad$[ebp]
	xor	ecx, ebp
	call	@__security_check_cookie@4
	mov	esp, ebp
	pop	ebp
	ret	0
_TEXT	ENDS
;	COMDAT text$x
text$x	SEGMENT
__unwindfunclet$?codePointToUTF8@Json@@YA?AV?$basic_string@DU?$char_traits@D@std@@V?$allocator@D@2@@std@@I@Z$0:
	lea	ecx, DWORD PTR _result$[ebp]
	jmp	DWORD PTR __imp_??1?$basic_string@DU?$char_traits@D@std@@V?$allocator@D@2@@std@@QAE@XZ
__unwindfunclet$?codePointToUTF8@Json@@YA?AV?$basic_string@DU?$char_traits@D@std@@V?$allocator@D@2@@std@@I@Z$1:
	mov	eax, DWORD PTR $T75728[ebp]
	and	eax, 1
	je	$LN12@codePointT
	and	DWORD PTR $T75728[ebp], -2		; fffffffeH
	mov	ecx, DWORD PTR ___$ReturnUdt$[ebp]
	jmp	DWORD PTR __imp_??1?$basic_string@DU?$char_traits@D@std@@V?$allocator@D@2@@std@@QAE@XZ
$LN12@codePointT:
	ret	0
__ehhandler$?codePointToUTF8@Json@@YA?AV?$basic_string@DU?$char_traits@D@std@@V?$allocator@D@2@@std@@I@Z:
	mov	edx, DWORD PTR [esp+8]
	lea	eax, DWORD PTR [edx+12]
	mov	ecx, DWORD PTR [edx-44]
	xor	ecx, eax
	call	@__security_check_cookie@4
	mov	ecx, DWORD PTR [edx-4]
	xor	ecx, eax
	call	@__security_check_cookie@4
	mov	eax, OFFSET __ehfuncinfo$?codePointToUTF8@Json@@YA?AV?$basic_string@DU?$char_traits@D@std@@V?$allocator@D@2@@std@@I@Z
	jmp	___CxxFrameHandler3
text$x	ENDS
?codePointToUTF8@Json@@YA?AV?$basic_string@DU?$char_traits@D@std@@V?$allocator@D@2@@std@@I@Z ENDP ; Json::codePointToUTF8
PUBLIC	??4ValueConstIterator@Json@@QAEAAV01@ABV01@@Z	; Json::ValueConstIterator::operator=
; Function compile flags: /Odtp
;	COMDAT ??4ValueConstIterator@Json@@QAEAAV01@ABV01@@Z
_TEXT	SEGMENT
_this$ = -4						; size = 4
___that$ = 8						; size = 4
??4ValueConstIterator@Json@@QAEAAV01@ABV01@@Z PROC	; Json::ValueConstIterator::operator=, COMDAT
; _this$ = ecx
	push	ebp
	mov	ebp, esp
	push	ecx
	mov	DWORD PTR _this$[ebp], ecx
	mov	eax, DWORD PTR ___that$[ebp]
	mov	ecx, DWORD PTR _this$[ebp]
	mov	edx, DWORD PTR [eax]
	mov	DWORD PTR [ecx], edx
	mov	edx, DWORD PTR [eax+4]
	mov	DWORD PTR [ecx+4], edx
	mov	eax, DWORD PTR [eax+8]
	mov	DWORD PTR [ecx+8], eax
	mov	eax, DWORD PTR _this$[ebp]
	mov	esp, ebp
	pop	ebp
	ret	4
??4ValueConstIterator@Json@@QAEAAV01@ABV01@@Z ENDP	; Json::ValueConstIterator::operator=
_TEXT	ENDS
PUBLIC	??4ValueIteratorBase@Json@@QAEAAV01@ABV01@@Z	; Json::ValueIteratorBase::operator=
; Function compile flags: /Odtp
;	COMDAT ??4ValueIteratorBase@Json@@QAEAAV01@ABV01@@Z
_TEXT	SEGMENT
_this$ = -4						; size = 4
___that$ = 8						; size = 4
??4ValueIteratorBase@Json@@QAEAAV01@ABV01@@Z PROC	; Json::ValueIteratorBase::operator=, COMDAT
; _this$ = ecx
	push	ebp
	mov	ebp, esp
	push	ecx
	mov	DWORD PTR _this$[ebp], ecx
	mov	eax, DWORD PTR ___that$[ebp]
	mov	ecx, DWORD PTR _this$[ebp]
	mov	edx, DWORD PTR [eax]
	mov	DWORD PTR [ecx], edx
	mov	edx, DWORD PTR [eax+4]
	mov	DWORD PTR [ecx+4], edx
	mov	eax, DWORD PTR [eax+8]
	mov	DWORD PTR [ecx+8], eax
	mov	eax, DWORD PTR _this$[ebp]
	mov	esp, ebp
	pop	ebp
	ret	4
??4ValueIteratorBase@Json@@QAEAAV01@ABV01@@Z ENDP	; Json::ValueIteratorBase::operator=
_TEXT	ENDS
PUBLIC	??4PathArgument@Json@@QAEAAV01@ABV01@@Z		; Json::PathArgument::operator=
; Function compile flags: /Odtp
;	COMDAT ??4PathArgument@Json@@QAEAAV01@ABV01@@Z
_TEXT	SEGMENT
_this$ = -4						; size = 4
___that$ = 8						; size = 4
??4PathArgument@Json@@QAEAAV01@ABV01@@Z PROC		; Json::PathArgument::operator=, COMDAT
; _this$ = ecx
	push	ebp
	mov	ebp, esp
	push	ecx
	mov	DWORD PTR _this$[ebp], ecx
	mov	eax, DWORD PTR ___that$[ebp]
	push	eax
	mov	ecx, DWORD PTR _this$[ebp]
	call	DWORD PTR __imp_??4?$basic_string@DU?$char_traits@D@std@@V?$allocator@D@2@@std@@QAEAAV01@ABV01@@Z
	mov	ecx, DWORD PTR _this$[ebp]
	mov	edx, DWORD PTR ___that$[ebp]
	mov	eax, DWORD PTR [edx+28]
	mov	DWORD PTR [ecx+28], eax
	mov	ecx, DWORD PTR _this$[ebp]
	mov	edx, DWORD PTR ___that$[ebp]
	mov	eax, DWORD PTR [edx+32]
	mov	DWORD PTR [ecx+32], eax
	mov	eax, DWORD PTR _this$[ebp]
	mov	esp, ebp
	pop	ebp
	ret	4
??4PathArgument@Json@@QAEAAV01@ABV01@@Z ENDP		; Json::PathArgument::operator=
_TEXT	ENDS
PUBLIC	??0PathArgument@Json@@QAE@ABV01@@Z		; Json::PathArgument::PathArgument
; Function compile flags: /Odtp
;	COMDAT ??0PathArgument@Json@@QAE@ABV01@@Z
_TEXT	SEGMENT
_this$ = -4						; size = 4
___that$ = 8						; size = 4
??0PathArgument@Json@@QAE@ABV01@@Z PROC			; Json::PathArgument::PathArgument, COMDAT
; _this$ = ecx
	push	ebp
	mov	ebp, esp
	push	ecx
	mov	DWORD PTR _this$[ebp], ecx
	mov	eax, DWORD PTR ___that$[ebp]
	push	eax
	mov	ecx, DWORD PTR _this$[ebp]
	call	DWORD PTR __imp_??0?$basic_string@DU?$char_traits@D@std@@V?$allocator@D@2@@std@@QAE@ABV01@@Z
	mov	ecx, DWORD PTR _this$[ebp]
	mov	edx, DWORD PTR ___that$[ebp]
	mov	eax, DWORD PTR [edx+28]
	mov	DWORD PTR [ecx+28], eax
	mov	ecx, DWORD PTR _this$[ebp]
	mov	edx, DWORD PTR ___that$[ebp]
	mov	eax, DWORD PTR [edx+32]
	mov	DWORD PTR [ecx+32], eax
	mov	eax, DWORD PTR _this$[ebp]
	mov	esp, ebp
	pop	ebp
	ret	4
??0PathArgument@Json@@QAE@ABV01@@Z ENDP			; Json::PathArgument::PathArgument
_TEXT	ENDS
PUBLIC	??1PathArgument@Json@@QAE@XZ			; Json::PathArgument::~PathArgument
; Function compile flags: /Odtp
;	COMDAT ??1PathArgument@Json@@QAE@XZ
_TEXT	SEGMENT
_this$ = -4						; size = 4
??1PathArgument@Json@@QAE@XZ PROC			; Json::PathArgument::~PathArgument, COMDAT
; _this$ = ecx
	push	ebp
	mov	ebp, esp
	push	ecx
	mov	DWORD PTR _this$[ebp], ecx
	mov	ecx, DWORD PTR _this$[ebp]
	call	DWORD PTR __imp_??1?$basic_string@DU?$char_traits@D@std@@V?$allocator@D@2@@std@@QAE@XZ
	mov	esp, ebp
	pop	ebp
	ret	0
??1PathArgument@Json@@QAE@XZ ENDP			; Json::PathArgument::~PathArgument
_TEXT	ENDS
PUBLIC	??4StaticString@Json@@QAEAAV01@ABV01@@Z		; Json::StaticString::operator=
; Function compile flags: /Odtp
;	COMDAT ??4StaticString@Json@@QAEAAV01@ABV01@@Z
_TEXT	SEGMENT
_this$ = -4						; size = 4
___that$ = 8						; size = 4
??4StaticString@Json@@QAEAAV01@ABV01@@Z PROC		; Json::StaticString::operator=, COMDAT
; _this$ = ecx
	push	ebp
	mov	ebp, esp
	push	ecx
	mov	DWORD PTR _this$[ebp], ecx
	mov	eax, DWORD PTR ___that$[ebp]
	mov	ecx, DWORD PTR [eax]
	mov	edx, DWORD PTR _this$[ebp]
	mov	DWORD PTR [edx], ecx
	mov	eax, DWORD PTR _this$[ebp]
	mov	esp, ebp
	pop	ebp
	ret	4
??4StaticString@Json@@QAEAAV01@ABV01@@Z ENDP		; Json::StaticString::operator=
_TEXT	ENDS
PUBLIC	?c_str@StaticString@Json@@QBEPBDXZ		; Json::StaticString::c_str
; Function compile flags: /Odtp
; File e:\newggdevelop\client\include\json\value.h
;	COMDAT ?c_str@StaticString@Json@@QBEPBDXZ
_TEXT	SEGMENT
_this$ = -4						; size = 4
?c_str@StaticString@Json@@QBEPBDXZ PROC			; Json::StaticString::c_str, COMDAT
; _this$ = ecx

; 90   :       {

	push	ebp
	mov	ebp, esp
	push	ecx
	mov	DWORD PTR _this$[ebp], ecx

; 91   :          return str_;

	mov	eax, DWORD PTR _this$[ebp]
	mov	eax, DWORD PTR [eax]

; 92   :       }

	mov	esp, ebp
	pop	ebp
	ret	0
?c_str@StaticString@Json@@QBEPBDXZ ENDP			; Json::StaticString::c_str
_TEXT	ENDS
PUBLIC	??BStaticString@Json@@QBEPBDXZ			; Json::StaticString::operator char const *
; Function compile flags: /Odtp
;	COMDAT ??BStaticString@Json@@QBEPBDXZ
_TEXT	SEGMENT
_this$ = -4						; size = 4
??BStaticString@Json@@QBEPBDXZ PROC			; Json::StaticString::operator char const *, COMDAT
; _this$ = ecx

; 85   :       {

	push	ebp
	mov	ebp, esp
	push	ecx
	mov	DWORD PTR _this$[ebp], ecx

; 86   :          return str_;

	mov	eax, DWORD PTR _this$[ebp]
	mov	eax, DWORD PTR [eax]

; 87   :       }

	mov	esp, ebp
	pop	ebp
	ret	0
??BStaticString@Json@@QBEPBDXZ ENDP			; Json::StaticString::operator char const *
_TEXT	ENDS
PUBLIC	??0StaticString@Json@@QAE@PBD@Z			; Json::StaticString::StaticString
; Function compile flags: /Odtp
;	COMDAT ??0StaticString@Json@@QAE@PBD@Z
_TEXT	SEGMENT
_this$ = -4						; size = 4
_czstring$ = 8						; size = 4
??0StaticString@Json@@QAE@PBD@Z PROC			; Json::StaticString::StaticString, COMDAT
; _this$ = ecx

; 81   :       {

	push	ebp
	mov	ebp, esp
	push	ecx
	mov	DWORD PTR _this$[ebp], ecx
	mov	eax, DWORD PTR _this$[ebp]
	mov	ecx, DWORD PTR _czstring$[ebp]
	mov	DWORD PTR [eax], ecx

; 82   :       }

	mov	eax, DWORD PTR _this$[ebp]
	mov	esp, ebp
	pop	ebp
	ret	4
??0StaticString@Json@@QAE@PBD@Z ENDP			; Json::StaticString::StaticString
_TEXT	ENDS
;	COMDAT xdata$x
xdata$x	SEGMENT
__unwindtable$??0logic_error@std@@QAE@ABV01@@Z DD 0ffffffffH
	DD	FLAT:__unwindfunclet$??0logic_error@std@@QAE@ABV01@@Z$0
__ehfuncinfo$??0logic_error@std@@QAE@ABV01@@Z DD 019930522H
	DD	01H
	DD	FLAT:__unwindtable$??0logic_error@std@@QAE@ABV01@@Z
	DD	2 DUP(00H)
	DD	2 DUP(00H)
	DD	00H
	DD	01H
; Function compile flags: /Odtp
xdata$x	ENDS
;	COMDAT ??0logic_error@std@@QAE@ABV01@@Z
_TEXT	SEGMENT
_this$ = -16						; size = 4
__$EHRec$ = -12						; size = 12
___that$ = 8						; size = 4
??0logic_error@std@@QAE@ABV01@@Z PROC			; std::logic_error::logic_error, COMDAT
; _this$ = ecx
	push	ebp
	mov	ebp, esp
	push	-1
	push	__ehhandler$??0logic_error@std@@QAE@ABV01@@Z
	mov	eax, DWORD PTR fs:0
	push	eax
	push	ecx
	mov	eax, DWORD PTR ___security_cookie
	xor	eax, ebp
	push	eax
	lea	eax, DWORD PTR __$EHRec$[ebp]
	mov	DWORD PTR fs:0, eax
	mov	DWORD PTR _this$[ebp], ecx
	mov	eax, DWORD PTR ___that$[ebp]
	push	eax
	mov	ecx, DWORD PTR _this$[ebp]
	call	DWORD PTR __imp_??0exception@std@@QAE@ABV01@@Z
	mov	DWORD PTR __$EHRec$[ebp+8], 0
	mov	ecx, DWORD PTR _this$[ebp]
	mov	DWORD PTR [ecx], OFFSET ??_7logic_error@std@@6B@
	mov	edx, DWORD PTR ___that$[ebp]
	add	edx, 12					; 0000000cH
	push	edx
	mov	ecx, DWORD PTR _this$[ebp]
	add	ecx, 12					; 0000000cH
	call	DWORD PTR __imp_??0?$basic_string@DU?$char_traits@D@std@@V?$allocator@D@2@@std@@QAE@ABV01@@Z
	mov	DWORD PTR __$EHRec$[ebp+8], -1
	mov	eax, DWORD PTR _this$[ebp]
	mov	ecx, DWORD PTR __$EHRec$[ebp]
	mov	DWORD PTR fs:0, ecx
	pop	ecx
	mov	esp, ebp
	pop	ebp
	ret	4
_TEXT	ENDS
;	COMDAT text$x
text$x	SEGMENT
__unwindfunclet$??0logic_error@std@@QAE@ABV01@@Z$0:
	mov	ecx, DWORD PTR _this$[ebp]
	jmp	DWORD PTR __imp_??1exception@std@@UAE@XZ
__ehhandler$??0logic_error@std@@QAE@ABV01@@Z:
	mov	edx, DWORD PTR [esp+8]
	lea	eax, DWORD PTR [edx+12]
	mov	ecx, DWORD PTR [edx-8]
	xor	ecx, eax
	call	@__security_check_cookie@4
	mov	eax, OFFSET __ehfuncinfo$??0logic_error@std@@QAE@ABV01@@Z
	jmp	___CxxFrameHandler3
text$x	ENDS
??0logic_error@std@@QAE@ABV01@@Z ENDP			; std::logic_error::logic_error
;	COMDAT xdata$x
xdata$x	SEGMENT
__unwindtable$??0runtime_error@std@@QAE@ABV01@@Z DD 0ffffffffH
	DD	FLAT:__unwindfunclet$??0runtime_error@std@@QAE@ABV01@@Z$0
__ehfuncinfo$??0runtime_error@std@@QAE@ABV01@@Z DD 019930522H
	DD	01H
	DD	FLAT:__unwindtable$??0runtime_error@std@@QAE@ABV01@@Z
	DD	2 DUP(00H)
	DD	2 DUP(00H)
	DD	00H
	DD	01H
; Function compile flags: /Odtp
xdata$x	ENDS
;	COMDAT ??0runtime_error@std@@QAE@ABV01@@Z
_TEXT	SEGMENT
_this$ = -16						; size = 4
__$EHRec$ = -12						; size = 12
___that$ = 8						; size = 4
??0runtime_error@std@@QAE@ABV01@@Z PROC			; std::runtime_error::runtime_error, COMDAT
; _this$ = ecx
	push	ebp
	mov	ebp, esp
	push	-1
	push	__ehhandler$??0runtime_error@std@@QAE@ABV01@@Z
	mov	eax, DWORD PTR fs:0
	push	eax
	push	ecx
	mov	eax, DWORD PTR ___security_cookie
	xor	eax, ebp
	push	eax
	lea	eax, DWORD PTR __$EHRec$[ebp]
	mov	DWORD PTR fs:0, eax
	mov	DWORD PTR _this$[ebp], ecx
	mov	eax, DWORD PTR ___that$[ebp]
	push	eax
	mov	ecx, DWORD PTR _this$[ebp]
	call	DWORD PTR __imp_??0exception@std@@QAE@ABV01@@Z
	mov	DWORD PTR __$EHRec$[ebp+8], 0
	mov	ecx, DWORD PTR _this$[ebp]
	mov	DWORD PTR [ecx], OFFSET ??_7runtime_error@std@@6B@
	mov	edx, DWORD PTR ___that$[ebp]
	add	edx, 12					; 0000000cH
	push	edx
	mov	ecx, DWORD PTR _this$[ebp]
	add	ecx, 12					; 0000000cH
	call	DWORD PTR __imp_??0?$basic_string@DU?$char_traits@D@std@@V?$allocator@D@2@@std@@QAE@ABV01@@Z
	mov	DWORD PTR __$EHRec$[ebp+8], -1
	mov	eax, DWORD PTR _this$[ebp]
	mov	ecx, DWORD PTR __$EHRec$[ebp]
	mov	DWORD PTR fs:0, ecx
	pop	ecx
	mov	esp, ebp
	pop	ebp
	ret	4
_TEXT	ENDS
;	COMDAT text$x
text$x	SEGMENT
__unwindfunclet$??0runtime_error@std@@QAE@ABV01@@Z$0:
	mov	ecx, DWORD PTR _this$[ebp]
	jmp	DWORD PTR __imp_??1exception@std@@UAE@XZ
__ehhandler$??0runtime_error@std@@QAE@ABV01@@Z:
	mov	edx, DWORD PTR [esp+8]
	lea	eax, DWORD PTR [edx+12]
	mov	ecx, DWORD PTR [edx-8]
	xor	ecx, eax
	call	@__security_check_cookie@4
	mov	eax, OFFSET __ehfuncinfo$??0runtime_error@std@@QAE@ABV01@@Z
	jmp	___CxxFrameHandler3
text$x	ENDS
??0runtime_error@std@@QAE@ABV01@@Z ENDP			; std::runtime_error::runtime_error
; Function compile flags: /Odtp
; File c:\program files (x86)\microsoft visual studio 9.0\vc\include\stdexcept
;	COMDAT ?what@runtime_error@std@@UBEPBDXZ
_TEXT	SEGMENT
_this$ = -4						; size = 4
?what@runtime_error@std@@UBEPBDXZ PROC			; std::runtime_error::what, COMDAT
; _this$ = ecx

; 161  : 		{	// return pointer to message string

	push	ebp
	mov	ebp, esp
	push	ecx
	mov	DWORD PTR _this$[ebp], ecx

; 162  : 		return (_Str.c_str());

	mov	ecx, DWORD PTR _this$[ebp]
	add	ecx, 12					; 0000000cH
	call	DWORD PTR __imp_?c_str@?$basic_string@DU?$char_traits@D@std@@V?$allocator@D@2@@std@@QBEPBDXZ

; 163  : 		}

	mov	esp, ebp
	pop	ebp
	ret	0
?what@runtime_error@std@@UBEPBDXZ ENDP			; std::runtime_error::what
; Function compile flags: /Odtp
_TEXT	ENDS
;	COMDAT ??1runtime_error@std@@UAE@XZ
_TEXT	SEGMENT
_this$ = -4						; size = 4
??1runtime_error@std@@UAE@XZ PROC			; std::runtime_error::~runtime_error, COMDAT
; _this$ = ecx

; 157  : 		{	// destroy the object

	push	ebp
	mov	ebp, esp
	push	ecx
	mov	DWORD PTR _this$[ebp], ecx
	mov	eax, DWORD PTR _this$[ebp]
	mov	DWORD PTR [eax], OFFSET ??_7runtime_error@std@@6B@

; 158  : 		}

	mov	ecx, DWORD PTR _this$[ebp]
	add	ecx, 12					; 0000000cH
	call	DWORD PTR __imp_??1?$basic_string@DU?$char_traits@D@std@@V?$allocator@D@2@@std@@QAE@XZ
	mov	ecx, DWORD PTR _this$[ebp]
	call	DWORD PTR __imp_??1exception@std@@UAE@XZ
	mov	esp, ebp
	pop	ebp
	ret	0
??1runtime_error@std@@UAE@XZ ENDP			; std::runtime_error::~runtime_error
_TEXT	ENDS
;	COMDAT xdata$x
xdata$x	SEGMENT
__unwindtable$??0runtime_error@std@@QAE@ABV?$basic_string@DU?$char_traits@D@std@@V?$allocator@D@2@@1@@Z DD 0ffffffffH
	DD	FLAT:__unwindfunclet$??0runtime_error@std@@QAE@ABV?$basic_string@DU?$char_traits@D@std@@V?$allocator@D@2@@1@@Z$0
__ehfuncinfo$??0runtime_error@std@@QAE@ABV?$basic_string@DU?$char_traits@D@std@@V?$allocator@D@2@@1@@Z DD 019930522H
	DD	01H
	DD	FLAT:__unwindtable$??0runtime_error@std@@QAE@ABV?$basic_string@DU?$char_traits@D@std@@V?$allocator@D@2@@1@@Z
	DD	2 DUP(00H)
	DD	2 DUP(00H)
	DD	00H
	DD	01H
; Function compile flags: /Odtp
xdata$x	ENDS
;	COMDAT ??0runtime_error@std@@QAE@ABV?$basic_string@DU?$char_traits@D@std@@V?$allocator@D@2@@1@@Z
_TEXT	SEGMENT
_this$ = -16						; size = 4
__$EHRec$ = -12						; size = 12
__Message$ = 8						; size = 4
??0runtime_error@std@@QAE@ABV?$basic_string@DU?$char_traits@D@std@@V?$allocator@D@2@@1@@Z PROC ; std::runtime_error::runtime_error, COMDAT
; _this$ = ecx

; 153  : 		{	// construct from message string

	push	ebp
	mov	ebp, esp
	push	-1
	push	__ehhandler$??0runtime_error@std@@QAE@ABV?$basic_string@DU?$char_traits@D@std@@V?$allocator@D@2@@1@@Z
	mov	eax, DWORD PTR fs:0
	push	eax
	push	ecx
	mov	eax, DWORD PTR ___security_cookie
	xor	eax, ebp
	push	eax
	lea	eax, DWORD PTR __$EHRec$[ebp]
	mov	DWORD PTR fs:0, eax
	mov	DWORD PTR _this$[ebp], ecx
	mov	ecx, DWORD PTR _this$[ebp]
	call	DWORD PTR __imp_??0exception@std@@QAE@XZ
	mov	DWORD PTR __$EHRec$[ebp+8], 0
	mov	eax, DWORD PTR _this$[ebp]
	mov	DWORD PTR [eax], OFFSET ??_7runtime_error@std@@6B@
	mov	ecx, DWORD PTR __Message$[ebp]
	push	ecx
	mov	ecx, DWORD PTR _this$[ebp]
	add	ecx, 12					; 0000000cH
	call	DWORD PTR __imp_??0?$basic_string@DU?$char_traits@D@std@@V?$allocator@D@2@@std@@QAE@ABV01@@Z

; 154  : 		}

	mov	DWORD PTR __$EHRec$[ebp+8], -1
	mov	eax, DWORD PTR _this$[ebp]
	mov	ecx, DWORD PTR __$EHRec$[ebp]
	mov	DWORD PTR fs:0, ecx
	pop	ecx
	mov	esp, ebp
	pop	ebp
	ret	4
_TEXT	ENDS
;	COMDAT text$x
text$x	SEGMENT
__unwindfunclet$??0runtime_error@std@@QAE@ABV?$basic_string@DU?$char_traits@D@std@@V?$allocator@D@2@@1@@Z$0:
	mov	ecx, DWORD PTR _this$[ebp]
	jmp	DWORD PTR __imp_??1exception@std@@UAE@XZ
__ehhandler$??0runtime_error@std@@QAE@ABV?$basic_string@DU?$char_traits@D@std@@V?$allocator@D@2@@1@@Z:
	mov	edx, DWORD PTR [esp+8]
	lea	eax, DWORD PTR [edx+12]
	mov	ecx, DWORD PTR [edx-8]
	xor	ecx, eax
	call	@__security_check_cookie@4
	mov	eax, OFFSET __ehfuncinfo$??0runtime_error@std@@QAE@ABV?$basic_string@DU?$char_traits@D@std@@V?$allocator@D@2@@1@@Z
	jmp	___CxxFrameHandler3
text$x	ENDS
??0runtime_error@std@@QAE@ABV?$basic_string@DU?$char_traits@D@std@@V?$allocator@D@2@@1@@Z ENDP ; std::runtime_error::runtime_error
; Function compile flags: /Odtp
;	COMDAT ?what@logic_error@std@@UBEPBDXZ
_TEXT	SEGMENT
_this$ = -4						; size = 4
?what@logic_error@std@@UBEPBDXZ PROC			; std::logic_error::what, COMDAT
; _this$ = ecx

; 34   : 		{	// return pointer to message string

	push	ebp
	mov	ebp, esp
	push	ecx
	mov	DWORD PTR _this$[ebp], ecx

; 35   : 		return (_Str.c_str());

	mov	ecx, DWORD PTR _this$[ebp]
	add	ecx, 12					; 0000000cH
	call	DWORD PTR __imp_?c_str@?$basic_string@DU?$char_traits@D@std@@V?$allocator@D@2@@std@@QBEPBDXZ

; 36   : 		}

	mov	esp, ebp
	pop	ebp
	ret	0
?what@logic_error@std@@UBEPBDXZ ENDP			; std::logic_error::what
; Function compile flags: /Odtp
_TEXT	ENDS
;	COMDAT ??1logic_error@std@@UAE@XZ
_TEXT	SEGMENT
_this$ = -4						; size = 4
??1logic_error@std@@UAE@XZ PROC				; std::logic_error::~logic_error, COMDAT
; _this$ = ecx

; 30   : 		{	// destroy the object

	push	ebp
	mov	ebp, esp
	push	ecx
	mov	DWORD PTR _this$[ebp], ecx
	mov	eax, DWORD PTR _this$[ebp]
	mov	DWORD PTR [eax], OFFSET ??_7logic_error@std@@6B@

; 31   : 		}

	mov	ecx, DWORD PTR _this$[ebp]
	add	ecx, 12					; 0000000cH
	call	DWORD PTR __imp_??1?$basic_string@DU?$char_traits@D@std@@V?$allocator@D@2@@std@@QAE@XZ
	mov	ecx, DWORD PTR _this$[ebp]
	call	DWORD PTR __imp_??1exception@std@@UAE@XZ
	mov	esp, ebp
	pop	ebp
	ret	0
??1logic_error@std@@UAE@XZ ENDP				; std::logic_error::~logic_error
_TEXT	ENDS
;	COMDAT xdata$x
xdata$x	SEGMENT
__unwindtable$??0logic_error@std@@QAE@ABV?$basic_string@DU?$char_traits@D@std@@V?$allocator@D@2@@1@@Z DD 0ffffffffH
	DD	FLAT:__unwindfunclet$??0logic_error@std@@QAE@ABV?$basic_string@DU?$char_traits@D@std@@V?$allocator@D@2@@1@@Z$0
__ehfuncinfo$??0logic_error@std@@QAE@ABV?$basic_string@DU?$char_traits@D@std@@V?$allocator@D@2@@1@@Z DD 019930522H
	DD	01H
	DD	FLAT:__unwindtable$??0logic_error@std@@QAE@ABV?$basic_string@DU?$char_traits@D@std@@V?$allocator@D@2@@1@@Z
	DD	2 DUP(00H)
	DD	2 DUP(00H)
	DD	00H
	DD	01H
; Function compile flags: /Odtp
xdata$x	ENDS
;	COMDAT ??0logic_error@std@@QAE@ABV?$basic_string@DU?$char_traits@D@std@@V?$allocator@D@2@@1@@Z
_TEXT	SEGMENT
_this$ = -16						; size = 4
__$EHRec$ = -12						; size = 12
__Message$ = 8						; size = 4
??0logic_error@std@@QAE@ABV?$basic_string@DU?$char_traits@D@std@@V?$allocator@D@2@@1@@Z PROC ; std::logic_error::logic_error, COMDAT
; _this$ = ecx

; 26   : 		{	// construct from message string

	push	ebp
	mov	ebp, esp
	push	-1
	push	__ehhandler$??0logic_error@std@@QAE@ABV?$basic_string@DU?$char_traits@D@std@@V?$allocator@D@2@@1@@Z
	mov	eax, DWORD PTR fs:0
	push	eax
	push	ecx
	mov	eax, DWORD PTR ___security_cookie
	xor	eax, ebp
	push	eax
	lea	eax, DWORD PTR __$EHRec$[ebp]
	mov	DWORD PTR fs:0, eax
	mov	DWORD PTR _this$[ebp], ecx
	mov	ecx, DWORD PTR _this$[ebp]
	call	DWORD PTR __imp_??0exception@std@@QAE@XZ
	mov	DWORD PTR __$EHRec$[ebp+8], 0
	mov	eax, DWORD PTR _this$[ebp]
	mov	DWORD PTR [eax], OFFSET ??_7logic_error@std@@6B@
	mov	ecx, DWORD PTR __Message$[ebp]
	push	ecx
	mov	ecx, DWORD PTR _this$[ebp]
	add	ecx, 12					; 0000000cH
	call	DWORD PTR __imp_??0?$basic_string@DU?$char_traits@D@std@@V?$allocator@D@2@@std@@QAE@ABV01@@Z

; 27   : 		}

	mov	DWORD PTR __$EHRec$[ebp+8], -1
	mov	eax, DWORD PTR _this$[ebp]
	mov	ecx, DWORD PTR __$EHRec$[ebp]
	mov	DWORD PTR fs:0, ecx
	pop	ecx
	mov	esp, ebp
	pop	ebp
	ret	4
_TEXT	ENDS
;	COMDAT text$x
text$x	SEGMENT
__unwindfunclet$??0logic_error@std@@QAE@ABV?$basic_string@DU?$char_traits@D@std@@V?$allocator@D@2@@1@@Z$0:
	mov	ecx, DWORD PTR _this$[ebp]
	jmp	DWORD PTR __imp_??1exception@std@@UAE@XZ
__ehhandler$??0logic_error@std@@QAE@ABV?$basic_string@DU?$char_traits@D@std@@V?$allocator@D@2@@1@@Z:
	mov	edx, DWORD PTR [esp+8]
	lea	eax, DWORD PTR [edx+12]
	mov	ecx, DWORD PTR [edx-8]
	xor	ecx, eax
	call	@__security_check_cookie@4
	mov	eax, OFFSET __ehfuncinfo$??0logic_error@std@@QAE@ABV?$basic_string@DU?$char_traits@D@std@@V?$allocator@D@2@@1@@Z
	jmp	___CxxFrameHandler3
text$x	ENDS
??0logic_error@std@@QAE@ABV?$basic_string@DU?$char_traits@D@std@@V?$allocator@D@2@@1@@Z ENDP ; std::logic_error::logic_error
; Function compile flags: /Odtp
; File c:\program files (x86)\microsoft visual studio 9.0\vc\include\xutility
;	COMDAT ?_Has_container@_Iterator_base_aux@std@@QBE_NXZ
_TEXT	SEGMENT
_this$ = -4						; size = 4
?_Has_container@_Iterator_base_aux@std@@QBE_NXZ PROC	; std::_Iterator_base_aux::_Has_container, COMDAT
; _this$ = ecx

; 467  : 		{	// Accelerate the comparison by not going through the aux object

	push	ebp
	mov	ebp, esp
	push	ecx
	mov	DWORD PTR _this$[ebp], ecx

; 468  : 		return _Myaux != 0;

	mov	eax, DWORD PTR _this$[ebp]
	xor	ecx, ecx
	cmp	DWORD PTR [eax], 0
	setne	cl
	mov	al, cl

; 469  : 		}

	mov	esp, ebp
	pop	ebp
	ret	0
?_Has_container@_Iterator_base_aux@std@@QBE_NXZ ENDP	; std::_Iterator_base_aux::_Has_container
; Function compile flags: /Odtp
_TEXT	ENDS
;	COMDAT ?_Same_container@_Iterator_base_aux@std@@QBE_NABV12@@Z
_TEXT	SEGMENT
_this$ = -4						; size = 4
__Other$ = 8						; size = 4
?_Same_container@_Iterator_base_aux@std@@QBE_NABV12@@Z PROC ; std::_Iterator_base_aux::_Same_container, COMDAT
; _this$ = ecx

; 462  : 		{	// Accelerate the comparison by not going through the aux object

	push	ebp
	mov	ebp, esp
	push	ecx
	mov	DWORD PTR _this$[ebp], ecx

; 463  : 		return _Myaux == _Other._Myaux;

	mov	eax, DWORD PTR _this$[ebp]
	mov	ecx, DWORD PTR __Other$[ebp]
	mov	edx, DWORD PTR [eax]
	xor	eax, eax
	cmp	edx, DWORD PTR [ecx]
	sete	al

; 464  : 		}

	mov	esp, ebp
	pop	ebp
	ret	4
?_Same_container@_Iterator_base_aux@std@@QBE_NABV12@@Z ENDP ; std::_Iterator_base_aux::_Same_container
; Function compile flags: /Odtp
_TEXT	ENDS
;	COMDAT ?_Set_container@_Iterator_base_aux@std@@QAEXQBV_Container_base_aux@2@@Z
_TEXT	SEGMENT
_this$ = -4						; size = 4
__Pcont$ = 8						; size = 4
?_Set_container@_Iterator_base_aux@std@@QAEXQBV_Container_base_aux@2@@Z PROC ; std::_Iterator_base_aux::_Set_container, COMDAT
; _this$ = ecx

; 452  : 		{

	push	ebp
	mov	ebp, esp
	push	ecx
	mov	DWORD PTR _this$[ebp], ecx

; 453  : 		_Myaux = _Pcont->_Myownedaux;

	mov	eax, DWORD PTR _this$[ebp]
	mov	ecx, DWORD PTR __Pcont$[ebp]
	mov	edx, DWORD PTR [ecx]
	mov	DWORD PTR [eax], edx

; 454  : 		}

	mov	esp, ebp
	pop	ebp
	ret	4
?_Set_container@_Iterator_base_aux@std@@QAEXQBV_Container_base_aux@2@@Z ENDP ; std::_Iterator_base_aux::_Set_container
; Function compile flags: /Odtp
_TEXT	ENDS
;	COMDAT ??0_Iterator_base_aux@std@@QAE@XZ
_TEXT	SEGMENT
_this$ = -4						; size = 4
??0_Iterator_base_aux@std@@QAE@XZ PROC			; std::_Iterator_base_aux::_Iterator_base_aux, COMDAT
; _this$ = ecx

; 448  : 	_Iterator_base_aux()

	push	ebp
	mov	ebp, esp
	push	ecx
	mov	DWORD PTR _this$[ebp], ecx
	mov	eax, DWORD PTR _this$[ebp]
	mov	DWORD PTR [eax], 0
	mov	eax, DWORD PTR _this$[ebp]
	mov	esp, ebp
	pop	ebp
	ret	0
??0_Iterator_base_aux@std@@QAE@XZ ENDP			; std::_Iterator_base_aux::_Iterator_base_aux
; Function compile flags: /Odtp
_TEXT	ENDS
;	COMDAT ??1_Container_base_aux@std@@QAE@XZ
_TEXT	SEGMENT
_this$ = -4						; size = 4
??1_Container_base_aux@std@@QAE@XZ PROC			; std::_Container_base_aux::~_Container_base_aux, COMDAT
; _this$ = ecx

; 402  : 		{

	push	ebp
	mov	ebp, esp
	push	ecx
	mov	DWORD PTR _this$[ebp], ecx

; 403  : 		// Do nothing: ~_Container_base_aux_alloc_real() previously destroyed the aux object.
; 404  : 		}

	mov	esp, ebp
	pop	ebp
	ret	0
??1_Container_base_aux@std@@QAE@XZ ENDP			; std::_Container_base_aux::~_Container_base_aux
; Function compile flags: /Odtp
_TEXT	ENDS
;	COMDAT ??0_Container_base_aux@std@@QAE@XZ
_TEXT	SEGMENT
_this$ = -4						; size = 4
??0_Container_base_aux@std@@QAE@XZ PROC			; std::_Container_base_aux::_Container_base_aux, COMDAT
; _this$ = ecx

; 379  : 	_Container_base_aux()

	push	ebp
	mov	ebp, esp
	push	ecx
	mov	DWORD PTR _this$[ebp], ecx

; 380  : 		{
; 381  : 		// Do nothing: _Container_base_aux_alloc_real() will construct the aux object.
; 382  : 		}

	mov	eax, DWORD PTR _this$[ebp]
	mov	esp, ebp
	pop	ebp
	ret	0
??0_Container_base_aux@std@@QAE@XZ ENDP			; std::_Container_base_aux::_Container_base_aux
; Function compile flags: /Odtp
_TEXT	ENDS
;	COMDAT ?_Getcont@_Aux_cont@std@@QBEPBV_Container_base_aux@2@XZ
_TEXT	SEGMENT
_this$ = -4						; size = 4
?_Getcont@_Aux_cont@std@@QBEPBV_Container_base_aux@2@XZ PROC ; std::_Aux_cont::_Getcont, COMDAT
; _this$ = ecx

; 368  : 		{

	push	ebp
	mov	ebp, esp
	push	ecx
	mov	DWORD PTR _this$[ebp], ecx

; 369  : 		return _Mycontainer;

	mov	eax, DWORD PTR _this$[ebp]
	mov	eax, DWORD PTR [eax]

; 370  : 		}

	mov	esp, ebp
	pop	ebp
	ret	0
?_Getcont@_Aux_cont@std@@QBEPBV_Container_base_aux@2@XZ ENDP ; std::_Aux_cont::_Getcont
; Function compile flags: /Odtp
_TEXT	ENDS
;	COMDAT ??0_Aux_cont@std@@QAE@QBV_Container_base_aux@1@@Z
_TEXT	SEGMENT
_this$ = -4						; size = 4
__Pcont$ = 8						; size = 4
??0_Aux_cont@std@@QAE@QBV_Container_base_aux@1@@Z PROC	; std::_Aux_cont::_Aux_cont, COMDAT
; _this$ = ecx

; 364  : 	explicit _Aux_cont(const _Container_base_aux * const _Pcont)

	push	ebp
	mov	ebp, esp
	push	ecx
	mov	DWORD PTR _this$[ebp], ecx
	mov	eax, DWORD PTR _this$[ebp]
	mov	ecx, DWORD PTR __Pcont$[ebp]
	mov	DWORD PTR [eax], ecx
	mov	eax, DWORD PTR _this$[ebp]
	mov	esp, ebp
	pop	ebp
	ret	4
??0_Aux_cont@std@@QAE@QBV_Container_base_aux@1@@Z ENDP	; std::_Aux_cont::_Aux_cont
; Function compile flags: /Odtp
; File c:\program files (x86)\microsoft visual studio 9.0\vc\include\new
_TEXT	ENDS
;	COMDAT ??3@YAXPAX0@Z
_TEXT	SEGMENT
___formal$ = 8						; size = 4
___formal$ = 12						; size = 4
??3@YAXPAX0@Z PROC					; operator delete, COMDAT

; 63   : 	{	// delete if placement new fails

	push	ebp
	mov	ebp, esp

; 64   : 	}

	pop	ebp
	ret	0
??3@YAXPAX0@Z ENDP					; operator delete
; Function compile flags: /Odtp
_TEXT	ENDS
;	COMDAT ??2@YAPAXIPAX@Z
_TEXT	SEGMENT
___formal$ = 8						; size = 4
__Where$ = 12						; size = 4
??2@YAPAXIPAX@Z PROC					; operator new, COMDAT

; 58   : 	{	// construct array with placement at _Where

	push	ebp
	mov	ebp, esp

; 59   : 	return (_Where);

	mov	eax, DWORD PTR __Where$[ebp]

; 60   : 	}

	pop	ebp
	ret	0
??2@YAPAXIPAX@Z ENDP					; operator new
; Function compile flags: /Odtp
; File c:\program files (x86)\microsoft visual studio 9.0\vc\include\exception
_TEXT	ENDS
;	COMDAT ??1bad_alloc@std@@UAE@XZ
_TEXT	SEGMENT
_this$ = -4						; size = 4
??1bad_alloc@std@@UAE@XZ PROC				; std::bad_alloc::~bad_alloc, COMDAT
; _this$ = ecx

; 380  : 		{	// destroy the object

	push	ebp
	mov	ebp, esp
	push	ecx
	mov	DWORD PTR _this$[ebp], ecx
	mov	eax, DWORD PTR _this$[ebp]
	mov	DWORD PTR [eax], OFFSET ??_7bad_alloc@std@@6B@

; 381  : 		}

	mov	ecx, DWORD PTR _this$[ebp]
	call	DWORD PTR __imp_??1exception@std@@UAE@XZ
	mov	esp, ebp
	pop	ebp
	ret	0
??1bad_alloc@std@@UAE@XZ ENDP				; std::bad_alloc::~bad_alloc
; Function compile flags: /Odtp
_TEXT	ENDS
;	COMDAT ??0bad_alloc@std@@QAE@PBD@Z
_TEXT	SEGMENT
_this$ = -4						; size = 4
__Message$ = 8						; size = 4
??0bad_alloc@std@@QAE@PBD@Z PROC			; std::bad_alloc::bad_alloc, COMDAT
; _this$ = ecx

; 371  : 		{	// construct from message string

	push	ebp
	mov	ebp, esp
	push	ecx
	mov	DWORD PTR _this$[ebp], ecx
	lea	eax, DWORD PTR __Message$[ebp]
	push	eax
	mov	ecx, DWORD PTR _this$[ebp]
	call	DWORD PTR __imp_??0exception@std@@QAE@ABQBD@Z
	mov	ecx, DWORD PTR _this$[ebp]
	mov	DWORD PTR [ecx], OFFSET ??_7bad_alloc@std@@6B@

; 372  : 		}

	mov	eax, DWORD PTR _this$[ebp]
	mov	esp, ebp
	pop	ebp
	ret	4
??0bad_alloc@std@@QAE@PBD@Z ENDP			; std::bad_alloc::bad_alloc
_TEXT	ENDS
PUBLIC	??4Features@Json@@QAEAAV01@ABV01@@Z		; Json::Features::operator=
; Function compile flags: /Odtp
;	COMDAT ??4Features@Json@@QAEAAV01@ABV01@@Z
_TEXT	SEGMENT
_this$ = -4						; size = 4
___that$ = 8						; size = 4
??4Features@Json@@QAEAAV01@ABV01@@Z PROC		; Json::Features::operator=, COMDAT
; _this$ = ecx
	push	ebp
	mov	ebp, esp
	push	ecx
	mov	DWORD PTR _this$[ebp], ecx
	mov	eax, DWORD PTR ___that$[ebp]
	mov	cx, WORD PTR [eax]
	mov	edx, DWORD PTR _this$[ebp]
	mov	WORD PTR [edx], cx
	mov	eax, DWORD PTR _this$[ebp]
	mov	esp, ebp
	pop	ebp
	ret	4
??4Features@Json@@QAEAAV01@ABV01@@Z ENDP		; Json::Features::operator=
;	COMDAT xdata$x
; File c:\program files (x86)\microsoft visual studio 9.0\vc\include\xmemory
xdata$x	SEGMENT
__unwindtable$??$_Construct@VPathArgument@Json@@V12@@std@@YAXPAVPathArgument@Json@@ABV12@@Z DD 0ffffffffH
	DD	FLAT:__unwindfunclet$??$_Construct@VPathArgument@Json@@V12@@std@@YAXPAVPathArgument@Json@@ABV12@@Z$0
__ehfuncinfo$??$_Construct@VPathArgument@Json@@V12@@std@@YAXPAVPathArgument@Json@@ABV12@@Z DD 019930522H
	DD	01H
	DD	FLAT:__unwindtable$??$_Construct@VPathArgument@Json@@V12@@std@@YAXPAVPathArgument@Json@@ABV12@@Z
	DD	2 DUP(00H)
	DD	2 DUP(00H)
	DD	00H
	DD	01H
; Function compile flags: /Odtp
xdata$x	ENDS
;	COMDAT ??$_Construct@VPathArgument@Json@@V12@@std@@YAXPAVPathArgument@Json@@ABV12@@Z
_TEXT	SEGMENT
tv74 = -28						; size = 4
$T76450 = -24						; size = 4
$T76449 = -20						; size = 4
__Vptr$ = -16						; size = 4
__$EHRec$ = -12						; size = 12
__Ptr$ = 8						; size = 4
__Val$ = 12						; size = 4
??$_Construct@VPathArgument@Json@@V12@@std@@YAXPAVPathArgument@Json@@ABV12@@Z PROC ; std::_Construct<Json::PathArgument,Json::PathArgument>, COMDAT

; 50   : 	{	// construct object at _Ptr with value _Val

	push	ebp
	mov	ebp, esp
	push	-1
	push	__ehhandler$??$_Construct@VPathArgument@Json@@V12@@std@@YAXPAVPathArgument@Json@@ABV12@@Z
	mov	eax, DWORD PTR fs:0
	push	eax
	sub	esp, 16					; 00000010H
	mov	eax, DWORD PTR ___security_cookie
	xor	eax, ebp
	push	eax
	lea	eax, DWORD PTR __$EHRec$[ebp]
	mov	DWORD PTR fs:0, eax

; 51   : 	void _FARQ *_Vptr = _Ptr;

	mov	eax, DWORD PTR __Ptr$[ebp]
	mov	DWORD PTR __Vptr$[ebp], eax

; 52   : 	::new (_Vptr) _T1(_Val);

	mov	ecx, DWORD PTR __Vptr$[ebp]
	push	ecx
	push	36					; 00000024H
	call	??2@YAPAXIPAX@Z				; operator new
	add	esp, 8
	mov	DWORD PTR $T76450[ebp], eax
	mov	DWORD PTR __$EHRec$[ebp+8], 0
	cmp	DWORD PTR $T76450[ebp], 0
	je	SHORT $LN3@Construct@3
	mov	edx, DWORD PTR __Val$[ebp]
	push	edx
	mov	ecx, DWORD PTR $T76450[ebp]
	call	??0PathArgument@Json@@QAE@ABV01@@Z
	mov	DWORD PTR tv74[ebp], eax
	jmp	SHORT $LN4@Construct@3
$LN3@Construct@3:
	mov	DWORD PTR tv74[ebp], 0
$LN4@Construct@3:
	mov	eax, DWORD PTR tv74[ebp]
	mov	DWORD PTR $T76449[ebp], eax
	mov	DWORD PTR __$EHRec$[ebp+8], -1

; 53   : 	}

	mov	ecx, DWORD PTR __$EHRec$[ebp]
	mov	DWORD PTR fs:0, ecx
	pop	ecx
	mov	esp, ebp
	pop	ebp
	ret	0
_TEXT	ENDS
;	COMDAT text$x
text$x	SEGMENT
__unwindfunclet$??$_Construct@VPathArgument@Json@@V12@@std@@YAXPAVPathArgument@Json@@ABV12@@Z$0:
	mov	eax, DWORD PTR __Vptr$[ebp]
	push	eax
	mov	ecx, DWORD PTR $T76450[ebp]
	push	ecx
	call	??3@YAXPAX0@Z				; operator delete
	add	esp, 8
	ret	0
__ehhandler$??$_Construct@VPathArgument@Json@@V12@@std@@YAXPAVPathArgument@Json@@ABV12@@Z:
	mov	edx, DWORD PTR [esp+8]
	lea	eax, DWORD PTR [edx+12]
	mov	ecx, DWORD PTR [edx-20]
	xor	ecx, eax
	call	@__security_check_cookie@4
	mov	eax, OFFSET __ehfuncinfo$??$_Construct@VPathArgument@Json@@V12@@std@@YAXPAVPathArgument@Json@@ABV12@@Z
	jmp	___CxxFrameHandler3
text$x	ENDS
??$_Construct@VPathArgument@Json@@V12@@std@@YAXPAVPathArgument@Json@@ABV12@@Z ENDP ; std::_Construct<Json::PathArgument,Json::PathArgument>
PUBLIC	__$ArrayPad$
;	COMDAT xdata$x
; File c:\program files (x86)\microsoft visual studio 9.0\vc\include\utility
xdata$x	SEGMENT
__unwindtable$??$swap@VErrorInfo@Reader@Json@@@std@@YAXAAVErrorInfo@Reader@Json@@0@Z DD 0ffffffffH
	DD	FLAT:__unwindfunclet$??$swap@VErrorInfo@Reader@Json@@@std@@YAXAAVErrorInfo@Reader@Json@@0@Z$0
__ehfuncinfo$??$swap@VErrorInfo@Reader@Json@@@std@@YAXAAVErrorInfo@Reader@Json@@0@Z DD 019930522H
	DD	01H
	DD	FLAT:__unwindtable$??$swap@VErrorInfo@Reader@Json@@@std@@YAXAAVErrorInfo@Reader@Json@@0@Z
	DD	2 DUP(00H)
	DD	2 DUP(00H)
	DD	00H
	DD	01H
; Function compile flags: /Odtp
xdata$x	ENDS
;	COMDAT ??$swap@VErrorInfo@Reader@Json@@@std@@YAXAAVErrorInfo@Reader@Json@@0@Z
_TEXT	SEGMENT
__Tmp$64846 = -60					; size = 44
__$ArrayPad$ = -16					; size = 4
__$EHRec$ = -12						; size = 12
__Left$ = 8						; size = 4
__Right$ = 12						; size = 4
??$swap@VErrorInfo@Reader@Json@@@std@@YAXAAVErrorInfo@Reader@Json@@0@Z PROC ; std::swap<Json::Reader::ErrorInfo>, COMDAT

; 17   : 	{	// exchange values stored at _Left and _Right

	push	ebp
	mov	ebp, esp
	push	-1
	push	__ehhandler$??$swap@VErrorInfo@Reader@Json@@@std@@YAXAAVErrorInfo@Reader@Json@@0@Z
	mov	eax, DWORD PTR fs:0
	push	eax
	sub	esp, 48					; 00000030H
	mov	eax, DWORD PTR ___security_cookie
	xor	eax, ebp
	mov	DWORD PTR __$ArrayPad$[ebp], eax
	push	eax
	lea	eax, DWORD PTR __$EHRec$[ebp]
	mov	DWORD PTR fs:0, eax

; 18   : 	if (&_Left != &_Right)

	mov	eax, DWORD PTR __Left$[ebp]
	cmp	eax, DWORD PTR __Right$[ebp]
	je	SHORT $LN2@swap@4

; 19   : 		{	// different, worth swapping
; 20   : 		_Ty _Tmp = _Left;

	mov	ecx, DWORD PTR __Left$[ebp]
	push	ecx
	lea	ecx, DWORD PTR __Tmp$64846[ebp]
	call	??0ErrorInfo@Reader@Json@@QAE@ABV012@@Z
	mov	DWORD PTR __$EHRec$[ebp+8], 0

; 21   : 
; 22   : 		_Left = _Right;

	mov	edx, DWORD PTR __Right$[ebp]
	push	edx
	mov	ecx, DWORD PTR __Left$[ebp]
	call	??4ErrorInfo@Reader@Json@@QAEAAV012@ABV012@@Z

; 23   : 		_Right = _Tmp;

	lea	eax, DWORD PTR __Tmp$64846[ebp]
	push	eax
	mov	ecx, DWORD PTR __Right$[ebp]
	call	??4ErrorInfo@Reader@Json@@QAEAAV012@ABV012@@Z

; 24   : 		}

	mov	DWORD PTR __$EHRec$[ebp+8], -1
	lea	ecx, DWORD PTR __Tmp$64846[ebp]
	call	??1ErrorInfo@Reader@Json@@QAE@XZ
$LN2@swap@4:

; 25   : 	}

	mov	ecx, DWORD PTR __$EHRec$[ebp]
	mov	DWORD PTR fs:0, ecx
	pop	ecx
	mov	ecx, DWORD PTR __$ArrayPad$[ebp]
	xor	ecx, ebp
	call	@__security_check_cookie@4
	mov	esp, ebp
	pop	ebp
	ret	0
_TEXT	ENDS
;	COMDAT text$x
text$x	SEGMENT
__unwindfunclet$??$swap@VErrorInfo@Reader@Json@@@std@@YAXAAVErrorInfo@Reader@Json@@0@Z$0:
	lea	ecx, DWORD PTR __Tmp$64846[ebp]
	jmp	??1ErrorInfo@Reader@Json@@QAE@XZ
__ehhandler$??$swap@VErrorInfo@Reader@Json@@@std@@YAXAAVErrorInfo@Reader@Json@@0@Z:
	mov	edx, DWORD PTR [esp+8]
	lea	eax, DWORD PTR [edx+12]
	mov	ecx, DWORD PTR [edx-52]
	xor	ecx, eax
	call	@__security_check_cookie@4
	mov	ecx, DWORD PTR [edx-4]
	xor	ecx, eax
	call	@__security_check_cookie@4
	mov	eax, OFFSET __ehfuncinfo$??$swap@VErrorInfo@Reader@Json@@@std@@YAXAAVErrorInfo@Reader@Json@@0@Z
	jmp	___CxxFrameHandler3
text$x	ENDS
??$swap@VErrorInfo@Reader@Json@@@std@@YAXAAVErrorInfo@Reader@Json@@0@Z ENDP ; std::swap<Json::Reader::ErrorInfo>
; Function compile flags: /Odtp
; File c:\program files (x86)\microsoft visual studio 9.0\vc\include\xutility
;	COMDAT ??$_Fill_n@PAPAPAVValue@Json@@IPAPAV12@@std@@YAXPAPAPAVValue@Json@@IABQAPAV12@Urandom_access_iterator_tag@0@U_Range_checked_iterator_tag@0@@Z
_TEXT	SEGMENT
$T76472 = -5						; size = 1
__Last$ = -4						; size = 4
__First$ = 8						; size = 4
__Count$ = 12						; size = 4
__Val$ = 16						; size = 4
___formal$ = 20						; size = 1
___formal$ = 24						; size = 1
